
.//Obj/Bootloader.elf:     file format elf32-littleriscv


Disassembly of section .text:

08000000 <Reset_Handler>:
    .globl  Reset_Handler
    .type   Reset_Handler, %function
Reset_Handler:
.option push
.option norelax
    la      gp, __global_pointer$
 8000000:	fa001197          	auipc	gp,0xfa001
 8000004:	c7018193          	addi	gp,gp,-912 # 2000c70 <_impure_ptr>
.option pop
    la      a0, unified_irq_exc_entry    //Default_Handler
 8000008:	00000517          	auipc	a0,0x0
 800000c:	2f850513          	addi	a0,a0,760 # 8000300 <unified_irq_exc_entry>
    ori     a0, a0, 3
 8000010:	00356513          	ori	a0,a0,3
    csrw    mtvec, a0
 8000014:	30551073          	csrw	mtvec,a0
	csrc	mstatus, 8
 8000018:	30047073          	csrci	mstatus,8
	
    la      a0, __Vectors
 800001c:	fa000517          	auipc	a0,0xfa000
 8000020:	1e450513          	addi	a0,a0,484 # 2000200 <__Vectors>
    csrw    mtvt, a0
 8000024:	30751073          	csrw	mtvt,a0

    la      sp, g_top_irqstack
 8000028:	fa002117          	auipc	sp,0xfa002
 800002c:	cb810113          	addi	sp,sp,-840 # 2001ce0 <trap_c_callback>
    csrw    mscratch, sp
 8000030:	34011073          	csrw	mscratch,sp

#if(defined CONFIG_BOOT_DCACHE_DISABLE && CONFIG_BOOT_DCACHE_DISABLE == 1U)
	/* Disable Dchache */
	lui		a5, 0x40102
 8000034:	401027b7          	lui	a5,0x40102
	li		a4, 1
 8000038:	4705                	li	a4,1
	sw		a4,	0(a5)
 800003a:	c398                	sw	a4,0(a5)
	
	lui		a5, 0x40200
 800003c:	402007b7          	lui	a5,0x40200
	addi	a5, a5,48
 8000040:	03078793          	addi	a5,a5,48 # 40200030 <__e_f_text+0x381cd608>
	li		a4, 0
 8000044:	4701                	li	a4,0
	sw		a4,	0(a5)
 8000046:	c398                	sw	a4,0(a5)
	li		a4, 0
	sw		a4,	0(a5)
#endif

    /* Load data_in section */
    la      a0, __erodata_in
 8000048:	00032517          	auipc	a0,0x32
 800004c:	e2850513          	addi	a0,a0,-472 # 8031e70 <__ctor_end__>
    la      a1, __data_in_start__
 8000050:	fa000597          	auipc	a1,0xfa000
 8000054:	1b058593          	addi	a1,a1,432 # 2000200 <__Vectors>
    la      a2, __data_in_end__
 8000058:	01018613          	addi	a2,gp,16 # 2000c80 <errno>
    bgeu    a1, a2, 2f
 800005c:	00c5fa63          	bgeu	a1,a2,8000070 <Reset_Handler+0x70>
1:
    lw      t0, (a0)
 8000060:	00052283          	lw	t0,0(a0)
    sw      t0, (a1)
 8000064:	0055a023          	sw	t0,0(a1)
    addi    a0, a0, 4
 8000068:	0511                	addi	a0,a0,4
    addi    a1, a1, 4
 800006a:	0591                	addi	a1,a1,4
    bltu    a1, a2, 1b
 800006c:	fec5eae3          	bltu	a1,a2,8000060 <Reset_Handler+0x60>
2:

    /* Clear bss_in section */
    la      a0, __bss_in_start__
 8000070:	01018513          	addi	a0,gp,16 # 2000c80 <errno>
    la      a1, __bss_in_end__
 8000074:	fa002597          	auipc	a1,0xfa002
 8000078:	d3858593          	addi	a1,a1,-712 # 2001dac <__bss_in_end__>
    bgeu    a0, a1, 2f
 800007c:	00b57763          	bgeu	a0,a1,800008a <Reset_Handler+0x8a>
1:
    sw      zero, (a0)
 8000080:	00052023          	sw	zero,0(a0)
    addi    a0, a0, 4
 8000084:	0511                	addi	a0,a0,4
    bltu    a0, a1, 1b
 8000086:	feb56de3          	bltu	a0,a1,8000080 <Reset_Handler+0x80>
2:

//	jal		init_ldo_and_hyper

    /* Load data_in section */
    la      a0, __erodata_ex
 800008a:	00033517          	auipc	a0,0x33
 800008e:	86650513          	addi	a0,a0,-1946 # 80328f0 <__erodata_ex>
    la      a1, __data_ex_start__
 8000092:	fa002597          	auipc	a1,0xfa002
 8000096:	51a58593          	addi	a1,a1,1306 # 20025ac <TextureFlashSize>
    la      a2, __data_ex_end__
 800009a:	fa002617          	auipc	a2,0xfa002
 800009e:	64a60613          	addi	a2,a2,1610 # 20026e4 <__data_ex_end__>
    bgeu    a1, a2, 2f
 80000a2:	00c5fa63          	bgeu	a1,a2,80000b6 <Reset_Handler+0xb6>
1:
    lw      t0, (a0)
 80000a6:	00052283          	lw	t0,0(a0)
    sw      t0, (a1)
 80000aa:	0055a023          	sw	t0,0(a1)
    addi    a0, a0, 4
 80000ae:	0511                	addi	a0,a0,4
    addi    a1, a1, 4
 80000b0:	0591                	addi	a1,a1,4
    bltu    a1, a2, 1b
 80000b2:	fec5eae3          	bltu	a1,a2,80000a6 <Reset_Handler+0xa6>
2:

    /* Clear bss_in section */
    la      a0, __bss_ex_start__
 80000b6:	fa002517          	auipc	a0,0xfa002
 80000ba:	63250513          	addi	a0,a0,1586 # 20026e8 <s_obj_arr>
    la      a1, __bss_ex_end__
 80000be:	fa00a597          	auipc	a1,0xfa00a
 80000c2:	a5a58593          	addi	a1,a1,-1446 # 2009b18 <Flash_Delay_calib>
    bgeu    a0, a1, 2f
 80000c6:	00b57763          	bgeu	a0,a1,80000d4 <Reset_Handler+0xd4>
1:
    sw      zero, (a0)
 80000ca:	00052023          	sw	zero,0(a0)
    addi    a0, a0, 4
 80000ce:	0511                	addi	a0,a0,4
    bltu    a0, a1, 1b
 80000d0:	feb56de3          	bltu	a0,a1,80000ca <Reset_Handler+0xca>
2:

    /* Load flash init section */
    la      a0, __e_f_text
 80000d4:	00033517          	auipc	a0,0x33
 80000d8:	95450513          	addi	a0,a0,-1708 # 8032a28 <__e_f_text>
    la      a1, __f_code_start
 80000dc:	fa00a597          	auipc	a1,0xfa00a
 80000e0:	a3c58593          	addi	a1,a1,-1476 # 2009b18 <Flash_Delay_calib>
    la      a2, __f_code_end
 80000e4:	fa00a617          	auipc	a2,0xfa00a
 80000e8:	65c60613          	addi	a2,a2,1628 # 200a740 <__f_code_end>
    bgeu    a1, a2, 2f
 80000ec:	00c5fa63          	bgeu	a1,a2,8000100 <Reset_Handler+0x100>
1:
    lw      t0, (a0)
 80000f0:	00052283          	lw	t0,0(a0)
    sw      t0, (a1)
 80000f4:	0055a023          	sw	t0,0(a1)
    addi    a0, a0, 4
 80000f8:	0511                	addi	a0,a0,4
    addi    a1, a1, 4
 80000fa:	0591                	addi	a1,a1,4
    bltu    a1, a2, 1b
 80000fc:	fec5eae3          	bltu	a1,a2,80000f0 <Reset_Handler+0xf0>
2:

#if(defined __SYSTEM_INIT && __SYSTEM_INIT == 1U)
    jal     SystemInit
 8000100:	01c2d0ef          	jal	ra,802d11c <SystemInit>
#endif

#if(defined __BOARD_INIT && __BOARD_INIT == 1U)
    jal     hw_board_init
 8000104:	443100ef          	jal	ra,8010d46 <hw_board_init>
#endif

    jal     __main
 8000108:	43b100ef          	jal	ra,8010d42 <__main>

0800010c <__exit>:

    .size   Reset_Handler, . - Reset_Handler

__exit:
    j      __exit
 800010c:	a001                	j	800010c <__exit>
	...

08000200 <BootVersion>:
 8000200:	2e31 3031 312e 5f39 7562 6c69 5f64 3032     1.10.19_build_20
 8000210:	3432 312e 2e30 3932 312e 2e37 3030 0000     24.10.29.17.00..

08000220 <Boot_compile_date>:
 8000220:	6546 2062 3732 3220 3230 0035 0000 0000     Feb 27 2025.....
	...

08000240 <Boot_compile_time>:
 8000240:	3131 333a 3a35 3034 0000 0000 0000 0000     11:35:40........
	...

08000260 <__stext>:
	...

08000280 <trap>:

    .align  2
    .global trap
    .type   trap, %function
trap:
    la      t0, g_trap_sp
 8000280:	fa002297          	auipc	t0,0xfa002
 8000284:	b2828293          	addi	t0,t0,-1240 # 2001da8 <g_trap_sp>
    addi    t0, t0, -68
 8000288:	fbc28293          	addi	t0,t0,-68
    sw      x1, 0(t0)
 800028c:	0012a023          	sw	ra,0(t0)
    sw      x2, 4(t0)
 8000290:	0022a223          	sw	sp,4(t0)
    sw      x3, 8(t0)
 8000294:	0032a423          	sw	gp,8(t0)
    sw      x4, 12(t0)
 8000298:	0042a623          	sw	tp,12(t0)
    sw      x6, 20(t0)
 800029c:	0062aa23          	sw	t1,20(t0)
    sw      x7, 24(t0)
 80002a0:	0072ac23          	sw	t2,24(t0)
    sw      x8, 28(t0)
 80002a4:	0082ae23          	sw	s0,28(t0)
    sw      x9, 32(t0)
 80002a8:	0292a023          	sw	s1,32(t0)
    sw      x10, 36(t0)
 80002ac:	02a2a223          	sw	a0,36(t0)
    sw      x11, 40(t0)
 80002b0:	02b2a423          	sw	a1,40(t0)
    sw      x12, 44(t0)
 80002b4:	02c2a623          	sw	a2,44(t0)
    sw      x13, 48(t0)
 80002b8:	02d2a823          	sw	a3,48(t0)
    sw      x14, 52(t0)
 80002bc:	02e2aa23          	sw	a4,52(t0)
    sw      x15, 56(t0)
 80002c0:	02f2ac23          	sw	a5,56(t0)
    csrr    a0, mepc
 80002c4:	34102573          	csrr	a0,mepc
    sw      a0, 60(t0)
 80002c8:	02a2ae23          	sw	a0,60(t0)
    csrr    a0, mstatus
 80002cc:	30002573          	csrr	a0,mstatus
    sw      a0, 64(t0)
 80002d0:	04a2a023          	sw	a0,64(t0)

    mv      a0, t0
 80002d4:	8516                	mv	a0,t0
    lw      t0, -4(sp)
 80002d6:	ffc12283          	lw	t0,-4(sp)
    mv      sp, a0
 80002da:	812a                	mv	sp,a0
    sw      t0, 16(sp)
 80002dc:	c816                	sw	t0,16(sp)
    
    jal     trap_c
 80002de:	77f2c0ef          	jal	ra,802d25c <trap_c>
 80002e2:	0001                	nop

080002e4 <__continue_label>:
	.globl __continue_label
	.section ".text"
	.align 2
	.type __continue_label, %function
__continue_label:
    mv a0, a0
 80002e4:	852a                	mv	a0,a0
    ret
 80002e6:	8082                	ret

080002e8 <__bkpt_label>:
	.globl __bkpt_label
	.section ".text"
	.align 2
	.type __bkpt_label, %function
__bkpt_label:
    ebreak
 80002e8:	9002                	ebreak
    ret
 80002ea:	8082                	ret
 80002ec:	00000013          	nop
 80002f0:	00000013          	nop
 80002f4:	00000013          	nop
 80002f8:	00000013          	nop
 80002fc:	00000013          	nop

08000300 <unified_irq_exc_entry>:
.align 6
.global unified_irq_exc_entry
.weak unified_irq_exc_entry
unified_irq_exc_entry:
#ifndef CONFIG_KERNEL_NONE// freertos enabled
    csrw    mscratch, sp
 8000300:	34011073          	csrw	mscratch,sp
    la      sp, g_top_irqstack
 8000304:	fa002117          	auipc	sp,0xfa002
 8000308:	9dc10113          	addi	sp,sp,-1572 # 2001ce0 <trap_c_callback>
#endif
    PUSH_CONTEXT
 800030c:	fbc10113          	addi	sp,sp,-68
 8000310:	c006                	sw	ra,0(sp)
 8000312:	c20e                	sw	gp,4(sp)
 8000314:	c412                	sw	tp,8(sp)
 8000316:	c616                	sw	t0,12(sp)
 8000318:	c81a                	sw	t1,16(sp)
 800031a:	ca1e                	sw	t2,20(sp)
 800031c:	cc22                	sw	s0,24(sp)
 800031e:	ce26                	sw	s1,28(sp)
 8000320:	d02a                	sw	a0,32(sp)
 8000322:	d22e                	sw	a1,36(sp)
 8000324:	d432                	sw	a2,40(sp)
 8000326:	d636                	sw	a3,44(sp)
 8000328:	d83a                	sw	a4,48(sp)
 800032a:	da3e                	sw	a5,52(sp)
    PUSH_CSR
 800032c:	342022f3          	csrr	t0,mcause
 8000330:	dc16                	sw	t0,56(sp)
 8000332:	341022f3          	csrr	t0,mepc
 8000336:	de16                	sw	t0,60(sp)
 8000338:	300022f3          	csrr	t0,mstatus
 800033c:	c096                	sw	t0,64(sp)
 800033e:	00c0                	addi	s0,sp,68
    
    csrr t0, mcause
 8000340:	342022f3          	csrr	t0,mcause
    srli t1, t0, 31
 8000344:	01f2d313          	srli	t1,t0,0x1f
    mv a0, sp
 8000348:	850a                	mv	a0,sp
    beq t1, x0, trap_c
 800034a:	00031463          	bnez	t1,8000352 <unified_irq_exc_entry+0x52>
 800034e:	70f2c06f          	j	802d25c <trap_c>
    
    csrr a0, mcause
 8000352:	34202573          	csrr	a0,mcause
    mv a1, sp
 8000356:	858a                	mv	a1,sp
    call non_vector_unified_handler
 8000358:	509100ef          	jal	ra,8011060 <non_vector_unified_handler>
    // 没有ipush/ipop指令, 不支持中断咬尾
    
    nop
 800035c:	0001                	nop
    POP_CSR
 800035e:	52e2                	lw	t0,56(sp)
 8000360:	34229073          	csrw	mcause,t0
 8000364:	52f2                	lw	t0,60(sp)
 8000366:	34129073          	csrw	mepc,t0
 800036a:	4286                	lw	t0,64(sp)
 800036c:	30029073          	csrw	mstatus,t0
    POP_CONTEXT
 8000370:	4082                	lw	ra,0(sp)
 8000372:	4192                	lw	gp,4(sp)
 8000374:	4222                	lw	tp,8(sp)
 8000376:	42b2                	lw	t0,12(sp)
 8000378:	4342                	lw	t1,16(sp)
 800037a:	43d2                	lw	t2,20(sp)
 800037c:	4462                	lw	s0,24(sp)
 800037e:	44f2                	lw	s1,28(sp)
 8000380:	5502                	lw	a0,32(sp)
 8000382:	5592                	lw	a1,36(sp)
 8000384:	5622                	lw	a2,40(sp)
 8000386:	56b2                	lw	a3,44(sp)
 8000388:	5742                	lw	a4,48(sp)
 800038a:	57d2                	lw	a5,52(sp)
 800038c:	04410113          	addi	sp,sp,68
#ifndef CONFIG_KERNEL_NONE// freertos enabled
    csrr    sp, mscratch
 8000390:	34002173          	csrr	sp,mscratch
#endif
    mret
 8000394:	30200073          	mret
 8000398:	00000013          	nop
 800039c:	00000013          	nop
 80003a0:	00000013          	nop
 80003a4:	00000013          	nop
 80003a8:	00000013          	nop
 80003ac:	00000013          	nop
 80003b0:	00000013          	nop
 80003b4:	00000013          	nop
 80003b8:	00000013          	nop
 80003bc:	00000013          	nop

080003c0 <AHMI_HandlerISR>:
    .align  6
    .weak   Default_Handler
    .global Default_Handler
    .type   Default_Handler, %function
Default_Handler:
    j      trap
 80003c0:	b5c1                	j	8000280 <trap>
 80003c2:	0001                	nop

080003c4 <set_sp>:
.text
    .align  2
    .global set_sp
    .type   set_sp, %function
set_sp:
    mv	sp,a0
 80003c4:	812a                	mv	sp,a0
 80003c6:	8082                	ret
	...

08000400 <vPortYield>:
 *
 ********************************************************************/
.global vPortYield
.type   vPortYield, %function
vPortYield:
    li      t0, 0xE080100C
 8000400:	e08012b7          	lui	t0,0xe0801
 8000404:	02b1                	addi	t0,t0,12
    lb      t1, (t0)
 8000406:	00028303          	lb	t1,0(t0) # e0801000 <__e_f_text+0xd87ce5d8>
    li      t2, 0x01
 800040a:	4385                	li	t2,1
    or      t1, t1, t2
 800040c:	00736333          	or	t1,t1,t2
    sb      t1, (t0)
 8000410:	00628023          	sb	t1,0(t0)

    ret
 8000414:	8082                	ret
 8000416:	00000013          	nop
 800041a:	00000013          	nop
 800041e:	00000013          	nop
 8000422:	00000013          	nop
 8000426:	00000013          	nop
 800042a:	00000013          	nop
 800042e:	00000013          	nop
 8000432:	00000013          	nop
 8000436:	00000013          	nop
 800043a:	00000013          	nop
 800043e:	00000013          	nop
 8000442:	00000013          	nop
 8000446:	00000013          	nop
 800044a:	00000013          	nop
 800044e:	00000013          	nop
 8000452:	00000013          	nop
 8000456:	00000013          	nop
 800045a:	00000013          	nop
 800045e:	00000013          	nop
 8000462:	00000013          	nop
 8000466:	00000013          	nop
 800046a:	00000013          	nop
 800046e:	00000013          	nop
 8000472:	00000013          	nop
 8000476:	00000013          	nop
 800047a:	00000013          	nop
 800047e:	00000013          	nop
 8000482:	00000013          	nop
 8000486:	00000013          	nop
 800048a:	00000013          	nop
 800048e:	00000013          	nop
 8000492:	00000013          	nop
 8000496:	00000013          	nop
 800049a:	00000013          	nop
 800049e:	00000013          	nop
 80004a2:	00000013          	nop
 80004a6:	00000013          	nop
 80004aa:	00000013          	nop
 80004ae:	00000013          	nop
 80004b2:	00000013          	nop
 80004b6:	00000013          	nop
 80004ba:	00000013          	nop
 80004be:	00000013          	nop
 80004c2:	00000013          	nop
 80004c6:	00000013          	nop
 80004ca:	00000013          	nop
 80004ce:	00000013          	nop
 80004d2:	00000013          	nop
 80004d6:	00000013          	nop
 80004da:	00000013          	nop
 80004de:	00000013          	nop
 80004e2:	00000013          	nop
 80004e6:	00000013          	nop
 80004ea:	00000013          	nop
 80004ee:	00000013          	nop
 80004f2:	00000013          	nop
 80004f6:	00000013          	nop
 80004fa:	00000013          	nop
 80004fe:	0001                	nop

08000500 <tspend_handler>:

.align 8
.func
freertos_risc_v_trap_handler:
tspend_handler:
    addi    sp, sp, -60
 8000500:	fc410113          	addi	sp,sp,-60

    sw      x1, 0(sp)
 8000504:	c006                	sw	ra,0(sp)
    sw      x3, 4(sp)
 8000506:	c20e                	sw	gp,4(sp)
    sw      x4, 8(sp)
 8000508:	c412                	sw	tp,8(sp)
    sw      x5, 12(sp)
 800050a:	c616                	sw	t0,12(sp)
    sw      x6, 16(sp)
 800050c:	c81a                	sw	t1,16(sp)
    sw      x7, 20(sp)
 800050e:	ca1e                	sw	t2,20(sp)
    sw      x8, 24(sp)
 8000510:	cc22                	sw	s0,24(sp)
    sw      x9, 28(sp)
 8000512:	ce26                	sw	s1,28(sp)
    sw      x10, 32(sp)
 8000514:	d02a                	sw	a0,32(sp)
    sw      x11, 36(sp)
 8000516:	d22e                	sw	a1,36(sp)
    sw      x12, 40(sp)
 8000518:	d432                	sw	a2,40(sp)
    sw      x13, 44(sp)
 800051a:	d636                	sw	a3,44(sp)
    sw      x14, 48(sp)
 800051c:	d83a                	sw	a4,48(sp)
    sw      x15, 52(sp)
 800051e:	da3e                	sw	a5,52(sp)
    csrr    t0, mepc
 8000520:	341022f3          	csrr	t0,mepc
    sw      t0, 56(sp)
 8000524:	dc16                	sw	t0,56(sp)
    la      a1, pxCurrentTCB
 8000526:	fa004597          	auipc	a1,0xfa004
 800052a:	29e58593          	addi	a1,a1,670 # 20047c4 <pxCurrentTCB>
    lw      a1, (a1)
 800052e:	418c                	lw	a1,0(a1)
    sw      sp, (a1)
 8000530:	0025a023          	sw	sp,0(a1)

    la      sp, g_top_irqstack
 8000534:	fa001117          	auipc	sp,0xfa001
 8000538:	7ac10113          	addi	sp,sp,1964 # 2001ce0 <trap_c_callback>
    jal     vTaskSwitchContext
 800053c:	4ca290ef          	jal	ra,8029a06 <vTaskSwitchContext>

    la      a1, pxCurrentTCB
 8000540:	fa004597          	auipc	a1,0xfa004
 8000544:	28458593          	addi	a1,a1,644 # 20047c4 <pxCurrentTCB>
    lw      a1, (a1)
 8000548:	418c                	lw	a1,0(a1)
    lw      sp, (a1)
 800054a:	0005a103          	lw	sp,0(a1)

    /* Run in machine mode */
    li      t0, MSTATUS_PRV1
 800054e:	6289                	lui	t0,0x2
 8000550:	88028293          	addi	t0,t0,-1920 # 1880 <__min_heap_size+0x1080>
    csrs    mstatus, t0
 8000554:	3002a073          	csrs	mstatus,t0

    lw      t0, 56(sp)
 8000558:	52e2                	lw	t0,56(sp)
    csrw    mepc, t0
 800055a:	34129073          	csrw	mepc,t0

    lw      x1, 0(sp)
 800055e:	4082                	lw	ra,0(sp)
    lw      x3, 4(sp)
 8000560:	4192                	lw	gp,4(sp)
    lw      x4, 8(sp)
 8000562:	4222                	lw	tp,8(sp)
    lw      x5, 12(sp)
 8000564:	42b2                	lw	t0,12(sp)
    lw      x6, 16(sp)
 8000566:	4342                	lw	t1,16(sp)
    lw      x7, 20(sp)
 8000568:	43d2                	lw	t2,20(sp)
    lw      x8, 24(sp)
 800056a:	4462                	lw	s0,24(sp)
    lw      x9, 28(sp)
 800056c:	44f2                	lw	s1,28(sp)
    lw      x10, 32(sp)
 800056e:	5502                	lw	a0,32(sp)
    lw      x11, 36(sp)
 8000570:	5592                	lw	a1,36(sp)
    lw      x12, 40(sp)
 8000572:	5622                	lw	a2,40(sp)
    lw      x13, 44(sp)
 8000574:	56b2                	lw	a3,44(sp)
    lw      x14, 48(sp)
 8000576:	5742                	lw	a4,48(sp)
    lw      x15, 52(sp)
 8000578:	57d2                	lw	a5,52(sp)

    addi    sp, sp, 60
 800057a:	03c10113          	addi	sp,sp,60

    mret
 800057e:	30200073          	mret
 8000582:	00000013          	nop
 8000586:	00000013          	nop
 800058a:	00000013          	nop
 800058e:	00000013          	nop
 8000592:	00000013          	nop
 8000596:	00000013          	nop
 800059a:	00000013          	nop
 800059e:	00000013          	nop
 80005a2:	00000013          	nop
 80005a6:	00000013          	nop
 80005aa:	00000013          	nop
 80005ae:	00000013          	nop
 80005b2:	00000013          	nop
 80005b6:	00000013          	nop
 80005ba:	00000013          	nop
 80005be:	00000013          	nop
 80005c2:	00000013          	nop
 80005c6:	00000013          	nop
 80005ca:	00000013          	nop
 80005ce:	00000013          	nop
 80005d2:	00000013          	nop
 80005d6:	00000013          	nop
 80005da:	00000013          	nop
 80005de:	00000013          	nop
 80005e2:	00000013          	nop
 80005e6:	00000013          	nop
 80005ea:	00000013          	nop
 80005ee:	00000013          	nop
 80005f2:	00000013          	nop
 80005f6:	00000013          	nop
 80005fa:	00000013          	nop
 80005fe:	0001                	nop

08000600 <xPortStartFirstTask>:


.align 8
.func
xPortStartFirstTask:
    la      a0, pxCurrentTCB
 8000600:	fa004517          	auipc	a0,0xfa004
 8000604:	1c450513          	addi	a0,a0,452 # 20047c4 <pxCurrentTCB>
    lw      a0, (a0)
 8000608:	4108                	lw	a0,0(a0)
    lw      sp, (a0)
 800060a:	00052103          	lw	sp,0(a0)

    /* Run in machine mode */
    li      t0, MSTATUS_PRV1
 800060e:	6289                	lui	t0,0x2
 8000610:	88028293          	addi	t0,t0,-1920 # 1880 <__min_heap_size+0x1080>
    csrs    mstatus, t0
 8000614:	3002a073          	csrs	mstatus,t0

    lw      t0, 56(sp)
 8000618:	52e2                	lw	t0,56(sp)
    csrw    mepc, t0
 800061a:	34129073          	csrw	mepc,t0

    lw      x1, 0(sp)
 800061e:	4082                	lw	ra,0(sp)
    lw      x3, 4(sp)
 8000620:	4192                	lw	gp,4(sp)
    lw      x4, 8(sp)
 8000622:	4222                	lw	tp,8(sp)
    lw      x5, 12(sp)
 8000624:	42b2                	lw	t0,12(sp)
    lw      x6, 16(sp)
 8000626:	4342                	lw	t1,16(sp)
    lw      x7, 20(sp)
 8000628:	43d2                	lw	t2,20(sp)
    lw      x8, 24(sp)
 800062a:	4462                	lw	s0,24(sp)
    lw      x9, 28(sp)
 800062c:	44f2                	lw	s1,28(sp)
    lw      x10, 32(sp)
 800062e:	5502                	lw	a0,32(sp)
    lw      x11, 36(sp)
 8000630:	5592                	lw	a1,36(sp)
    lw      x12, 40(sp)
 8000632:	5622                	lw	a2,40(sp)
    lw      x13, 44(sp)
 8000634:	56b2                	lw	a3,44(sp)
    lw      x14, 48(sp)
 8000636:	5742                	lw	a4,48(sp)
    lw      x15, 52(sp)
 8000638:	57d2                	lw	a5,52(sp)

    addi    sp, sp, 60
 800063a:	03c10113          	addi	sp,sp,60

    mret
 800063e:	30200073          	mret
	...

0800066c <nan>:
 800066c:	00031797          	auipc	a5,0x31
 8000670:	7a478793          	addi	a5,a5,1956 # 8031e10 <msc_class_driver+0x21c>
 8000674:	4388                	lw	a0,0(a5)
 8000676:	43cc                	lw	a1,4(a5)
 8000678:	8082                	ret

0800067a <nanf>:
 800067a:	00031517          	auipc	a0,0x31
 800067e:	79e52503          	lw	a0,1950(a0) # 8031e18 <msc_class_driver+0x224>
 8000682:	8082                	ret

08000684 <__udivdi3>:
 8000684:	1161                	addi	sp,sp,-8
 8000686:	c222                	sw	s0,4(sp)
 8000688:	c026                	sw	s1,0(sp)
 800068a:	82aa                	mv	t0,a0
 800068c:	87ae                	mv	a5,a1
 800068e:	20069e63          	bnez	a3,80008aa <__udivdi3+0x226>
 8000692:	85b6                	mv	a1,a3
 8000694:	8332                	mv	t1,a2
 8000696:	83aa                	mv	t2,a0
 8000698:	0002d697          	auipc	a3,0x2d
 800069c:	2e868693          	addi	a3,a3,744 # 802d980 <__clz_tab>
 80006a0:	0cc7f263          	bgeu	a5,a2,8000764 <__udivdi3+0xe0>
 80006a4:	6741                	lui	a4,0x10
 80006a6:	853e                	mv	a0,a5
 80006a8:	0ae67763          	bgeu	a2,a4,8000756 <__udivdi3+0xd2>
 80006ac:	0ff00713          	li	a4,255
 80006b0:	00c73733          	sltu	a4,a4,a2
 80006b4:	070e                	slli	a4,a4,0x3
 80006b6:	00e655b3          	srl	a1,a2,a4
 80006ba:	96ae                	add	a3,a3,a1
 80006bc:	0006c683          	lbu	a3,0(a3)
 80006c0:	9736                	add	a4,a4,a3
 80006c2:	02000693          	li	a3,32
 80006c6:	40e68433          	sub	s0,a3,a4
 80006ca:	00e68c63          	beq	a3,a4,80006e2 <__udivdi3+0x5e>
 80006ce:	008796b3          	sll	a3,a5,s0
 80006d2:	00e2d733          	srl	a4,t0,a4
 80006d6:	00861333          	sll	t1,a2,s0
 80006da:	00d76533          	or	a0,a4,a3
 80006de:	008293b3          	sll	t2,t0,s0
 80006e2:	01035593          	srli	a1,t1,0x10
 80006e6:	02b556b3          	divu	a3,a0,a1
 80006ea:	01031613          	slli	a2,t1,0x10
 80006ee:	8241                	srli	a2,a2,0x10
 80006f0:	0103d793          	srli	a5,t2,0x10
 80006f4:	02b57733          	remu	a4,a0,a1
 80006f8:	8536                	mv	a0,a3
 80006fa:	02d602b3          	mul	t0,a2,a3
 80006fe:	0742                	slli	a4,a4,0x10
 8000700:	8fd9                	or	a5,a5,a4
 8000702:	0057fc63          	bgeu	a5,t0,800071a <__udivdi3+0x96>
 8000706:	979a                	add	a5,a5,t1
 8000708:	fff68513          	addi	a0,a3,-1
 800070c:	0067e763          	bltu	a5,t1,800071a <__udivdi3+0x96>
 8000710:	0057f563          	bgeu	a5,t0,800071a <__udivdi3+0x96>
 8000714:	ffe68513          	addi	a0,a3,-2
 8000718:	979a                	add	a5,a5,t1
 800071a:	405787b3          	sub	a5,a5,t0
 800071e:	02b7f733          	remu	a4,a5,a1
 8000722:	03c2                	slli	t2,t2,0x10
 8000724:	0103d393          	srli	t2,t2,0x10
 8000728:	02b7d7b3          	divu	a5,a5,a1
 800072c:	0742                	slli	a4,a4,0x10
 800072e:	007763b3          	or	t2,a4,t2
 8000732:	02f60633          	mul	a2,a2,a5
 8000736:	873e                	mv	a4,a5
 8000738:	00c3fb63          	bgeu	t2,a2,800074e <__udivdi3+0xca>
 800073c:	939a                	add	t2,t2,t1
 800073e:	fff78713          	addi	a4,a5,-1
 8000742:	0063e663          	bltu	t2,t1,800074e <__udivdi3+0xca>
 8000746:	00c3f463          	bgeu	t2,a2,800074e <__udivdi3+0xca>
 800074a:	ffe78713          	addi	a4,a5,-2
 800074e:	0542                	slli	a0,a0,0x10
 8000750:	8d59                	or	a0,a0,a4
 8000752:	4581                	li	a1,0
 8000754:	a855                	j	8000808 <__udivdi3+0x184>
 8000756:	010005b7          	lui	a1,0x1000
 800075a:	4741                	li	a4,16
 800075c:	f4b66de3          	bltu	a2,a1,80006b6 <__udivdi3+0x32>
 8000760:	4761                	li	a4,24
 8000762:	bf91                	j	80006b6 <__udivdi3+0x32>
 8000764:	e601                	bnez	a2,800076c <__udivdi3+0xe8>
 8000766:	4705                	li	a4,1
 8000768:	02c75333          	divu	t1,a4,a2
 800076c:	6741                	lui	a4,0x10
 800076e:	0ae37163          	bgeu	t1,a4,8000810 <__udivdi3+0x18c>
 8000772:	0ff00713          	li	a4,255
 8000776:	00677363          	bgeu	a4,t1,800077c <__udivdi3+0xf8>
 800077a:	45a1                	li	a1,8
 800077c:	00b35733          	srl	a4,t1,a1
 8000780:	96ba                	add	a3,a3,a4
 8000782:	0006c703          	lbu	a4,0(a3)
 8000786:	02000693          	li	a3,32
 800078a:	972e                	add	a4,a4,a1
 800078c:	40e68533          	sub	a0,a3,a4
 8000790:	08e69763          	bne	a3,a4,800081e <__udivdi3+0x19a>
 8000794:	406787b3          	sub	a5,a5,t1
 8000798:	4585                	li	a1,1
 800079a:	01035293          	srli	t0,t1,0x10
 800079e:	01031613          	slli	a2,t1,0x10
 80007a2:	8241                	srli	a2,a2,0x10
 80007a4:	0103d713          	srli	a4,t2,0x10
 80007a8:	0257f6b3          	remu	a3,a5,t0
 80007ac:	0257d7b3          	divu	a5,a5,t0
 80007b0:	06c2                	slli	a3,a3,0x10
 80007b2:	8f55                	or	a4,a4,a3
 80007b4:	02f60433          	mul	s0,a2,a5
 80007b8:	853e                	mv	a0,a5
 80007ba:	00877c63          	bgeu	a4,s0,80007d2 <__udivdi3+0x14e>
 80007be:	971a                	add	a4,a4,t1
 80007c0:	fff78513          	addi	a0,a5,-1
 80007c4:	00676763          	bltu	a4,t1,80007d2 <__udivdi3+0x14e>
 80007c8:	00877563          	bgeu	a4,s0,80007d2 <__udivdi3+0x14e>
 80007cc:	ffe78513          	addi	a0,a5,-2
 80007d0:	971a                	add	a4,a4,t1
 80007d2:	8f01                	sub	a4,a4,s0
 80007d4:	025777b3          	remu	a5,a4,t0
 80007d8:	03c2                	slli	t2,t2,0x10
 80007da:	0103d393          	srli	t2,t2,0x10
 80007de:	02575733          	divu	a4,a4,t0
 80007e2:	07c2                	slli	a5,a5,0x10
 80007e4:	0077e3b3          	or	t2,a5,t2
 80007e8:	02e60633          	mul	a2,a2,a4
 80007ec:	87ba                	mv	a5,a4
 80007ee:	00c3fb63          	bgeu	t2,a2,8000804 <__udivdi3+0x180>
 80007f2:	939a                	add	t2,t2,t1
 80007f4:	fff70793          	addi	a5,a4,-1 # ffff <__min_heap_size+0xf7ff>
 80007f8:	0063e663          	bltu	t2,t1,8000804 <__udivdi3+0x180>
 80007fc:	00c3f463          	bgeu	t2,a2,8000804 <__udivdi3+0x180>
 8000800:	ffe70793          	addi	a5,a4,-2
 8000804:	0542                	slli	a0,a0,0x10
 8000806:	8d5d                	or	a0,a0,a5
 8000808:	4412                	lw	s0,4(sp)
 800080a:	4482                	lw	s1,0(sp)
 800080c:	0121                	addi	sp,sp,8
 800080e:	8082                	ret
 8000810:	01000737          	lui	a4,0x1000
 8000814:	45c1                	li	a1,16
 8000816:	f6e363e3          	bltu	t1,a4,800077c <__udivdi3+0xf8>
 800081a:	45e1                	li	a1,24
 800081c:	b785                	j	800077c <__udivdi3+0xf8>
 800081e:	00a31333          	sll	t1,t1,a0
 8000822:	00e7d6b3          	srl	a3,a5,a4
 8000826:	00a293b3          	sll	t2,t0,a0
 800082a:	00a797b3          	sll	a5,a5,a0
 800082e:	01035513          	srli	a0,t1,0x10
 8000832:	00e2d733          	srl	a4,t0,a4
 8000836:	02a6d2b3          	divu	t0,a3,a0
 800083a:	00f76633          	or	a2,a4,a5
 800083e:	01031793          	slli	a5,t1,0x10
 8000842:	83c1                	srli	a5,a5,0x10
 8000844:	01065593          	srli	a1,a2,0x10
 8000848:	02a6f733          	remu	a4,a3,a0
 800084c:	025786b3          	mul	a3,a5,t0
 8000850:	0742                	slli	a4,a4,0x10
 8000852:	8f4d                	or	a4,a4,a1
 8000854:	8596                	mv	a1,t0
 8000856:	00d77c63          	bgeu	a4,a3,800086e <__udivdi3+0x1ea>
 800085a:	971a                	add	a4,a4,t1
 800085c:	fff28593          	addi	a1,t0,-1
 8000860:	00676763          	bltu	a4,t1,800086e <__udivdi3+0x1ea>
 8000864:	00d77563          	bgeu	a4,a3,800086e <__udivdi3+0x1ea>
 8000868:	ffe28593          	addi	a1,t0,-2
 800086c:	971a                	add	a4,a4,t1
 800086e:	40d706b3          	sub	a3,a4,a3
 8000872:	02a6f733          	remu	a4,a3,a0
 8000876:	02a6d6b3          	divu	a3,a3,a0
 800087a:	0742                	slli	a4,a4,0x10
 800087c:	02d78533          	mul	a0,a5,a3
 8000880:	01061793          	slli	a5,a2,0x10
 8000884:	83c1                	srli	a5,a5,0x10
 8000886:	8fd9                	or	a5,a5,a4
 8000888:	8736                	mv	a4,a3
 800088a:	00a7fc63          	bgeu	a5,a0,80008a2 <__udivdi3+0x21e>
 800088e:	979a                	add	a5,a5,t1
 8000890:	fff68713          	addi	a4,a3,-1
 8000894:	0067e763          	bltu	a5,t1,80008a2 <__udivdi3+0x21e>
 8000898:	00a7f563          	bgeu	a5,a0,80008a2 <__udivdi3+0x21e>
 800089c:	ffe68713          	addi	a4,a3,-2
 80008a0:	979a                	add	a5,a5,t1
 80008a2:	05c2                	slli	a1,a1,0x10
 80008a4:	8f89                	sub	a5,a5,a0
 80008a6:	8dd9                	or	a1,a1,a4
 80008a8:	bdcd                	j	800079a <__udivdi3+0x116>
 80008aa:	12d5ef63          	bltu	a1,a3,80009e8 <__udivdi3+0x364>
 80008ae:	6741                	lui	a4,0x10
 80008b0:	02e6ff63          	bgeu	a3,a4,80008ee <__udivdi3+0x26a>
 80008b4:	0ff00713          	li	a4,255
 80008b8:	00d73733          	sltu	a4,a4,a3
 80008bc:	070e                	slli	a4,a4,0x3
 80008be:	00e6d533          	srl	a0,a3,a4
 80008c2:	0002d597          	auipc	a1,0x2d
 80008c6:	0be58593          	addi	a1,a1,190 # 802d980 <__clz_tab>
 80008ca:	95aa                	add	a1,a1,a0
 80008cc:	0005c583          	lbu	a1,0(a1)
 80008d0:	02000513          	li	a0,32
 80008d4:	972e                	add	a4,a4,a1
 80008d6:	40e505b3          	sub	a1,a0,a4
 80008da:	02e51163          	bne	a0,a4,80008fc <__udivdi3+0x278>
 80008de:	4505                	li	a0,1
 80008e0:	f2f6e4e3          	bltu	a3,a5,8000808 <__udivdi3+0x184>
 80008e4:	00c2b633          	sltu	a2,t0,a2
 80008e8:	00164513          	xori	a0,a2,1
 80008ec:	bf31                	j	8000808 <__udivdi3+0x184>
 80008ee:	010005b7          	lui	a1,0x1000
 80008f2:	4741                	li	a4,16
 80008f4:	fcb6e5e3          	bltu	a3,a1,80008be <__udivdi3+0x23a>
 80008f8:	4761                	li	a4,24
 80008fa:	b7d1                	j	80008be <__udivdi3+0x23a>
 80008fc:	00e65333          	srl	t1,a2,a4
 8000900:	00b696b3          	sll	a3,a3,a1
 8000904:	00d36333          	or	t1,t1,a3
 8000908:	00e7d3b3          	srl	t2,a5,a4
 800090c:	01035413          	srli	s0,t1,0x10
 8000910:	0283f6b3          	remu	a3,t2,s0
 8000914:	01031513          	slli	a0,t1,0x10
 8000918:	8141                	srli	a0,a0,0x10
 800091a:	00e2d733          	srl	a4,t0,a4
 800091e:	00b797b3          	sll	a5,a5,a1
 8000922:	8fd9                	or	a5,a5,a4
 8000924:	0107d713          	srli	a4,a5,0x10
 8000928:	00b61633          	sll	a2,a2,a1
 800092c:	0283d3b3          	divu	t2,t2,s0
 8000930:	06c2                	slli	a3,a3,0x10
 8000932:	8ed9                	or	a3,a3,a4
 8000934:	027504b3          	mul	s1,a0,t2
 8000938:	871e                	mv	a4,t2
 800093a:	0096fc63          	bgeu	a3,s1,8000952 <__udivdi3+0x2ce>
 800093e:	969a                	add	a3,a3,t1
 8000940:	fff38713          	addi	a4,t2,-1
 8000944:	0066e763          	bltu	a3,t1,8000952 <__udivdi3+0x2ce>
 8000948:	0096f563          	bgeu	a3,s1,8000952 <__udivdi3+0x2ce>
 800094c:	ffe38713          	addi	a4,t2,-2
 8000950:	969a                	add	a3,a3,t1
 8000952:	8e85                	sub	a3,a3,s1
 8000954:	0286f3b3          	remu	t2,a3,s0
 8000958:	07c2                	slli	a5,a5,0x10
 800095a:	83c1                	srli	a5,a5,0x10
 800095c:	0286d6b3          	divu	a3,a3,s0
 8000960:	03c2                	slli	t2,t2,0x10
 8000962:	00f3e7b3          	or	a5,t2,a5
 8000966:	02d50533          	mul	a0,a0,a3
 800096a:	83b6                	mv	t2,a3
 800096c:	00a7fc63          	bgeu	a5,a0,8000984 <__udivdi3+0x300>
 8000970:	979a                	add	a5,a5,t1
 8000972:	fff68393          	addi	t2,a3,-1
 8000976:	0067e763          	bltu	a5,t1,8000984 <__udivdi3+0x300>
 800097a:	00a7f563          	bgeu	a5,a0,8000984 <__udivdi3+0x300>
 800097e:	ffe68393          	addi	t2,a3,-2
 8000982:	979a                	add	a5,a5,t1
 8000984:	8f89                	sub	a5,a5,a0
 8000986:	6441                	lui	s0,0x10
 8000988:	01071513          	slli	a0,a4,0x10
 800098c:	00756533          	or	a0,a0,t2
 8000990:	fff40713          	addi	a4,s0,-1 # ffff <__min_heap_size+0xf7ff>
 8000994:	00e573b3          	and	t2,a0,a4
 8000998:	01055693          	srli	a3,a0,0x10
 800099c:	8f71                	and	a4,a4,a2
 800099e:	8241                	srli	a2,a2,0x10
 80009a0:	02e38333          	mul	t1,t2,a4
 80009a4:	02e68733          	mul	a4,a3,a4
 80009a8:	02c383b3          	mul	t2,t2,a2
 80009ac:	02c686b3          	mul	a3,a3,a2
 80009b0:	93ba                	add	t2,t2,a4
 80009b2:	01035613          	srli	a2,t1,0x10
 80009b6:	961e                	add	a2,a2,t2
 80009b8:	00e67363          	bgeu	a2,a4,80009be <__udivdi3+0x33a>
 80009bc:	96a2                	add	a3,a3,s0
 80009be:	01065713          	srli	a4,a2,0x10
 80009c2:	96ba                	add	a3,a3,a4
 80009c4:	02d7e063          	bltu	a5,a3,80009e4 <__udivdi3+0x360>
 80009c8:	d8d795e3          	bne	a5,a3,8000752 <__udivdi3+0xce>
 80009cc:	67c1                	lui	a5,0x10
 80009ce:	17fd                	addi	a5,a5,-1
 80009d0:	8e7d                	and	a2,a2,a5
 80009d2:	0642                	slli	a2,a2,0x10
 80009d4:	00f37333          	and	t1,t1,a5
 80009d8:	00b292b3          	sll	t0,t0,a1
 80009dc:	961a                	add	a2,a2,t1
 80009de:	4581                	li	a1,0
 80009e0:	e2c2f4e3          	bgeu	t0,a2,8000808 <__udivdi3+0x184>
 80009e4:	157d                	addi	a0,a0,-1
 80009e6:	b3b5                	j	8000752 <__udivdi3+0xce>
 80009e8:	4581                	li	a1,0
 80009ea:	4501                	li	a0,0
 80009ec:	bd31                	j	8000808 <__udivdi3+0x184>

080009ee <__umoddi3>:
 80009ee:	1151                	addi	sp,sp,-12
 80009f0:	c422                	sw	s0,8(sp)
 80009f2:	c226                	sw	s1,4(sp)
 80009f4:	87aa                	mv	a5,a0
 80009f6:	872e                	mv	a4,a1
 80009f8:	1c069a63          	bnez	a3,8000bcc <__umoddi3+0x1de>
 80009fc:	8336                	mv	t1,a3
 80009fe:	8432                	mv	s0,a2
 8000a00:	0002d697          	auipc	a3,0x2d
 8000a04:	f8068693          	addi	a3,a3,-128 # 802d980 <__clz_tab>
 8000a08:	0ac5fa63          	bgeu	a1,a2,8000abc <__umoddi3+0xce>
 8000a0c:	62c1                	lui	t0,0x10
 8000a0e:	0a567063          	bgeu	a2,t0,8000aae <__umoddi3+0xc0>
 8000a12:	0ff00293          	li	t0,255
 8000a16:	00c2f363          	bgeu	t0,a2,8000a1c <__umoddi3+0x2e>
 8000a1a:	4321                	li	t1,8
 8000a1c:	006652b3          	srl	t0,a2,t1
 8000a20:	9696                	add	a3,a3,t0
 8000a22:	0006c683          	lbu	a3,0(a3)
 8000a26:	9336                	add	t1,t1,a3
 8000a28:	02000693          	li	a3,32
 8000a2c:	406682b3          	sub	t0,a3,t1
 8000a30:	00668c63          	beq	a3,t1,8000a48 <__umoddi3+0x5a>
 8000a34:	005595b3          	sll	a1,a1,t0
 8000a38:	00655333          	srl	t1,a0,t1
 8000a3c:	00561433          	sll	s0,a2,t0
 8000a40:	00b36733          	or	a4,t1,a1
 8000a44:	005517b3          	sll	a5,a0,t0
 8000a48:	01045393          	srli	t2,s0,0x10
 8000a4c:	02777633          	remu	a2,a4,t2
 8000a50:	01041513          	slli	a0,s0,0x10
 8000a54:	8141                	srli	a0,a0,0x10
 8000a56:	0107d693          	srli	a3,a5,0x10
 8000a5a:	02775733          	divu	a4,a4,t2
 8000a5e:	0642                	slli	a2,a2,0x10
 8000a60:	8ed1                	or	a3,a3,a2
 8000a62:	02e50733          	mul	a4,a0,a4
 8000a66:	00e6f863          	bgeu	a3,a4,8000a76 <__umoddi3+0x88>
 8000a6a:	96a2                	add	a3,a3,s0
 8000a6c:	0086e563          	bltu	a3,s0,8000a76 <__umoddi3+0x88>
 8000a70:	00e6f363          	bgeu	a3,a4,8000a76 <__umoddi3+0x88>
 8000a74:	96a2                	add	a3,a3,s0
 8000a76:	8e99                	sub	a3,a3,a4
 8000a78:	0276f733          	remu	a4,a3,t2
 8000a7c:	07c2                	slli	a5,a5,0x10
 8000a7e:	83c1                	srli	a5,a5,0x10
 8000a80:	0276d6b3          	divu	a3,a3,t2
 8000a84:	02d506b3          	mul	a3,a0,a3
 8000a88:	01071513          	slli	a0,a4,0x10
 8000a8c:	8fc9                	or	a5,a5,a0
 8000a8e:	00d7f863          	bgeu	a5,a3,8000a9e <__umoddi3+0xb0>
 8000a92:	97a2                	add	a5,a5,s0
 8000a94:	0087e563          	bltu	a5,s0,8000a9e <__umoddi3+0xb0>
 8000a98:	00d7f363          	bgeu	a5,a3,8000a9e <__umoddi3+0xb0>
 8000a9c:	97a2                	add	a5,a5,s0
 8000a9e:	8f95                	sub	a5,a5,a3
 8000aa0:	0057d533          	srl	a0,a5,t0
 8000aa4:	4581                	li	a1,0
 8000aa6:	4422                	lw	s0,8(sp)
 8000aa8:	4492                	lw	s1,4(sp)
 8000aaa:	0131                	addi	sp,sp,12
 8000aac:	8082                	ret
 8000aae:	010002b7          	lui	t0,0x1000
 8000ab2:	4341                	li	t1,16
 8000ab4:	f65664e3          	bltu	a2,t0,8000a1c <__umoddi3+0x2e>
 8000ab8:	4361                	li	t1,24
 8000aba:	b78d                	j	8000a1c <__umoddi3+0x2e>
 8000abc:	e601                	bnez	a2,8000ac4 <__umoddi3+0xd6>
 8000abe:	4705                	li	a4,1
 8000ac0:	02c75433          	divu	s0,a4,a2
 8000ac4:	6741                	lui	a4,0x10
 8000ac6:	08e47163          	bgeu	s0,a4,8000b48 <__umoddi3+0x15a>
 8000aca:	0ff00713          	li	a4,255
 8000ace:	00877363          	bgeu	a4,s0,8000ad4 <__umoddi3+0xe6>
 8000ad2:	4321                	li	t1,8
 8000ad4:	00645733          	srl	a4,s0,t1
 8000ad8:	96ba                	add	a3,a3,a4
 8000ada:	0006c603          	lbu	a2,0(a3)
 8000ade:	02000713          	li	a4,32
 8000ae2:	9332                	add	t1,t1,a2
 8000ae4:	406702b3          	sub	t0,a4,t1
 8000ae8:	06671763          	bne	a4,t1,8000b56 <__umoddi3+0x168>
 8000aec:	8d81                	sub	a1,a1,s0
 8000aee:	01045693          	srli	a3,s0,0x10
 8000af2:	01041513          	slli	a0,s0,0x10
 8000af6:	8141                	srli	a0,a0,0x10
 8000af8:	0107d613          	srli	a2,a5,0x10
 8000afc:	02d5f733          	remu	a4,a1,a3
 8000b00:	02d5d5b3          	divu	a1,a1,a3
 8000b04:	0742                	slli	a4,a4,0x10
 8000b06:	8f51                	or	a4,a4,a2
 8000b08:	02b505b3          	mul	a1,a0,a1
 8000b0c:	00b77863          	bgeu	a4,a1,8000b1c <__umoddi3+0x12e>
 8000b10:	9722                	add	a4,a4,s0
 8000b12:	00876563          	bltu	a4,s0,8000b1c <__umoddi3+0x12e>
 8000b16:	00b77363          	bgeu	a4,a1,8000b1c <__umoddi3+0x12e>
 8000b1a:	9722                	add	a4,a4,s0
 8000b1c:	40b705b3          	sub	a1,a4,a1
 8000b20:	02d5f733          	remu	a4,a1,a3
 8000b24:	07c2                	slli	a5,a5,0x10
 8000b26:	83c1                	srli	a5,a5,0x10
 8000b28:	02d5d5b3          	divu	a1,a1,a3
 8000b2c:	0742                	slli	a4,a4,0x10
 8000b2e:	8fd9                	or	a5,a5,a4
 8000b30:	02b50533          	mul	a0,a0,a1
 8000b34:	00a7f863          	bgeu	a5,a0,8000b44 <__umoddi3+0x156>
 8000b38:	97a2                	add	a5,a5,s0
 8000b3a:	0087e563          	bltu	a5,s0,8000b44 <__umoddi3+0x156>
 8000b3e:	00a7f363          	bgeu	a5,a0,8000b44 <__umoddi3+0x156>
 8000b42:	97a2                	add	a5,a5,s0
 8000b44:	8f89                	sub	a5,a5,a0
 8000b46:	bfa9                	j	8000aa0 <__umoddi3+0xb2>
 8000b48:	01000737          	lui	a4,0x1000
 8000b4c:	4341                	li	t1,16
 8000b4e:	f8e463e3          	bltu	s0,a4,8000ad4 <__umoddi3+0xe6>
 8000b52:	4361                	li	t1,24
 8000b54:	b741                	j	8000ad4 <__umoddi3+0xe6>
 8000b56:	00541433          	sll	s0,s0,t0
 8000b5a:	0065d6b3          	srl	a3,a1,t1
 8000b5e:	005517b3          	sll	a5,a0,t0
 8000b62:	00655333          	srl	t1,a0,t1
 8000b66:	01045513          	srli	a0,s0,0x10
 8000b6a:	02a6f733          	remu	a4,a3,a0
 8000b6e:	005595b3          	sll	a1,a1,t0
 8000b72:	00b36633          	or	a2,t1,a1
 8000b76:	01041593          	slli	a1,s0,0x10
 8000b7a:	81c1                	srli	a1,a1,0x10
 8000b7c:	01065313          	srli	t1,a2,0x10
 8000b80:	02a6d6b3          	divu	a3,a3,a0
 8000b84:	0742                	slli	a4,a4,0x10
 8000b86:	00676733          	or	a4,a4,t1
 8000b8a:	02d586b3          	mul	a3,a1,a3
 8000b8e:	00d77863          	bgeu	a4,a3,8000b9e <__umoddi3+0x1b0>
 8000b92:	9722                	add	a4,a4,s0
 8000b94:	00876563          	bltu	a4,s0,8000b9e <__umoddi3+0x1b0>
 8000b98:	00d77363          	bgeu	a4,a3,8000b9e <__umoddi3+0x1b0>
 8000b9c:	9722                	add	a4,a4,s0
 8000b9e:	40d706b3          	sub	a3,a4,a3
 8000ba2:	02a6f733          	remu	a4,a3,a0
 8000ba6:	02a6d6b3          	divu	a3,a3,a0
 8000baa:	0742                	slli	a4,a4,0x10
 8000bac:	02d586b3          	mul	a3,a1,a3
 8000bb0:	01061593          	slli	a1,a2,0x10
 8000bb4:	81c1                	srli	a1,a1,0x10
 8000bb6:	8dd9                	or	a1,a1,a4
 8000bb8:	00d5f863          	bgeu	a1,a3,8000bc8 <__umoddi3+0x1da>
 8000bbc:	95a2                	add	a1,a1,s0
 8000bbe:	0085e563          	bltu	a1,s0,8000bc8 <__umoddi3+0x1da>
 8000bc2:	00d5f363          	bgeu	a1,a3,8000bc8 <__umoddi3+0x1da>
 8000bc6:	95a2                	add	a1,a1,s0
 8000bc8:	8d95                	sub	a1,a1,a3
 8000bca:	b715                	j	8000aee <__umoddi3+0x100>
 8000bcc:	ecd5ede3          	bltu	a1,a3,8000aa6 <__umoddi3+0xb8>
 8000bd0:	6341                	lui	t1,0x10
 8000bd2:	0466f563          	bgeu	a3,t1,8000c1c <__umoddi3+0x22e>
 8000bd6:	0ff00293          	li	t0,255
 8000bda:	00d2b333          	sltu	t1,t0,a3
 8000bde:	030e                	slli	t1,t1,0x3
 8000be0:	0066d3b3          	srl	t2,a3,t1
 8000be4:	0002d297          	auipc	t0,0x2d
 8000be8:	d9c28293          	addi	t0,t0,-612 # 802d980 <__clz_tab>
 8000bec:	929e                	add	t0,t0,t2
 8000bee:	0002c283          	lbu	t0,0(t0)
 8000bf2:	929a                	add	t0,t0,t1
 8000bf4:	02000313          	li	t1,32
 8000bf8:	405303b3          	sub	t2,t1,t0
 8000bfc:	02531763          	bne	t1,t0,8000c2a <__umoddi3+0x23c>
 8000c00:	00b6e463          	bltu	a3,a1,8000c08 <__umoddi3+0x21a>
 8000c04:	00c56963          	bltu	a0,a2,8000c16 <__umoddi3+0x228>
 8000c08:	40c507b3          	sub	a5,a0,a2
 8000c0c:	8d95                	sub	a1,a1,a3
 8000c0e:	00f53533          	sltu	a0,a0,a5
 8000c12:	40a58733          	sub	a4,a1,a0
 8000c16:	853e                	mv	a0,a5
 8000c18:	85ba                	mv	a1,a4
 8000c1a:	b571                	j	8000aa6 <__umoddi3+0xb8>
 8000c1c:	010002b7          	lui	t0,0x1000
 8000c20:	4341                	li	t1,16
 8000c22:	fa56efe3          	bltu	a3,t0,8000be0 <__umoddi3+0x1f2>
 8000c26:	4361                	li	t1,24
 8000c28:	bf65                	j	8000be0 <__umoddi3+0x1f2>
 8000c2a:	007696b3          	sll	a3,a3,t2
 8000c2e:	00565333          	srl	t1,a2,t0
 8000c32:	00d36333          	or	t1,t1,a3
 8000c36:	0055d4b3          	srl	s1,a1,t0
 8000c3a:	01035413          	srli	s0,t1,0x10
 8000c3e:	00555733          	srl	a4,a0,t0
 8000c42:	007517b3          	sll	a5,a0,t2
 8000c46:	0284d533          	divu	a0,s1,s0
 8000c4a:	c03e                	sw	a5,0(sp)
 8000c4c:	007595b3          	sll	a1,a1,t2
 8000c50:	8dd9                	or	a1,a1,a4
 8000c52:	01031713          	slli	a4,t1,0x10
 8000c56:	8341                	srli	a4,a4,0x10
 8000c58:	00761633          	sll	a2,a2,t2
 8000c5c:	0284f7b3          	remu	a5,s1,s0
 8000c60:	02a704b3          	mul	s1,a4,a0
 8000c64:	01079693          	slli	a3,a5,0x10
 8000c68:	0105d793          	srli	a5,a1,0x10
 8000c6c:	8fd5                	or	a5,a5,a3
 8000c6e:	86aa                	mv	a3,a0
 8000c70:	0097fc63          	bgeu	a5,s1,8000c88 <__umoddi3+0x29a>
 8000c74:	979a                	add	a5,a5,t1
 8000c76:	fff50693          	addi	a3,a0,-1
 8000c7a:	0067e763          	bltu	a5,t1,8000c88 <__umoddi3+0x29a>
 8000c7e:	0097f563          	bgeu	a5,s1,8000c88 <__umoddi3+0x29a>
 8000c82:	ffe50693          	addi	a3,a0,-2
 8000c86:	979a                	add	a5,a5,t1
 8000c88:	8f85                	sub	a5,a5,s1
 8000c8a:	0287f533          	remu	a0,a5,s0
 8000c8e:	05c2                	slli	a1,a1,0x10
 8000c90:	81c1                	srli	a1,a1,0x10
 8000c92:	0287d433          	divu	s0,a5,s0
 8000c96:	0542                	slli	a0,a0,0x10
 8000c98:	8dc9                	or	a1,a1,a0
 8000c9a:	02870733          	mul	a4,a4,s0
 8000c9e:	87a2                	mv	a5,s0
 8000ca0:	00e5fc63          	bgeu	a1,a4,8000cb8 <__umoddi3+0x2ca>
 8000ca4:	959a                	add	a1,a1,t1
 8000ca6:	fff40793          	addi	a5,s0,-1
 8000caa:	0065e763          	bltu	a1,t1,8000cb8 <__umoddi3+0x2ca>
 8000cae:	00e5f563          	bgeu	a1,a4,8000cb8 <__umoddi3+0x2ca>
 8000cb2:	ffe40793          	addi	a5,s0,-2
 8000cb6:	959a                	add	a1,a1,t1
 8000cb8:	06c2                	slli	a3,a3,0x10
 8000cba:	6441                	lui	s0,0x10
 8000cbc:	8edd                	or	a3,a3,a5
 8000cbe:	40e58733          	sub	a4,a1,a4
 8000cc2:	fff40593          	addi	a1,s0,-1 # ffff <__min_heap_size+0xf7ff>
 8000cc6:	00b6f7b3          	and	a5,a3,a1
 8000cca:	01065493          	srli	s1,a2,0x10
 8000cce:	82c1                	srli	a3,a3,0x10
 8000cd0:	8df1                	and	a1,a1,a2
 8000cd2:	02b78533          	mul	a0,a5,a1
 8000cd6:	02b685b3          	mul	a1,a3,a1
 8000cda:	029787b3          	mul	a5,a5,s1
 8000cde:	029686b3          	mul	a3,a3,s1
 8000ce2:	97ae                	add	a5,a5,a1
 8000ce4:	01055493          	srli	s1,a0,0x10
 8000ce8:	97a6                	add	a5,a5,s1
 8000cea:	00b7f363          	bgeu	a5,a1,8000cf0 <__umoddi3+0x302>
 8000cee:	96a2                	add	a3,a3,s0
 8000cf0:	0107d593          	srli	a1,a5,0x10
 8000cf4:	96ae                	add	a3,a3,a1
 8000cf6:	65c1                	lui	a1,0x10
 8000cf8:	15fd                	addi	a1,a1,-1
 8000cfa:	8fed                	and	a5,a5,a1
 8000cfc:	07c2                	slli	a5,a5,0x10
 8000cfe:	8d6d                	and	a0,a0,a1
 8000d00:	953e                	add	a0,a0,a5
 8000d02:	00d76763          	bltu	a4,a3,8000d10 <__umoddi3+0x322>
 8000d06:	00d71d63          	bne	a4,a3,8000d20 <__umoddi3+0x332>
 8000d0a:	4782                	lw	a5,0(sp)
 8000d0c:	00a7fa63          	bgeu	a5,a0,8000d20 <__umoddi3+0x332>
 8000d10:	40c50633          	sub	a2,a0,a2
 8000d14:	00c53533          	sltu	a0,a0,a2
 8000d18:	932a                	add	t1,t1,a0
 8000d1a:	406686b3          	sub	a3,a3,t1
 8000d1e:	8532                	mv	a0,a2
 8000d20:	4782                	lw	a5,0(sp)
 8000d22:	40d706b3          	sub	a3,a4,a3
 8000d26:	40a78533          	sub	a0,a5,a0
 8000d2a:	00a7b5b3          	sltu	a1,a5,a0
 8000d2e:	40b685b3          	sub	a1,a3,a1
 8000d32:	005597b3          	sll	a5,a1,t0
 8000d36:	00755533          	srl	a0,a0,t2
 8000d3a:	8d5d                	or	a0,a0,a5
 8000d3c:	0075d5b3          	srl	a1,a1,t2
 8000d40:	b39d                	j	8000aa6 <__umoddi3+0xb8>

08000d42 <__adddf3>:
 8000d42:	00100337          	lui	t1,0x100
 8000d46:	137d                	addi	t1,t1,-1
 8000d48:	1131                	addi	sp,sp,-20
 8000d4a:	00b377b3          	and	a5,t1,a1
 8000d4e:	0145d713          	srli	a4,a1,0x14
 8000d52:	c426                	sw	s1,8(sp)
 8000d54:	078e                	slli	a5,a5,0x3
 8000d56:	7ff77493          	andi	s1,a4,2047
 8000d5a:	01d55713          	srli	a4,a0,0x1d
 8000d5e:	8fd9                	or	a5,a5,a4
 8000d60:	00d37733          	and	a4,t1,a3
 8000d64:	0146d313          	srli	t1,a3,0x14
 8000d68:	c622                	sw	s0,12(sp)
 8000d6a:	7ff37313          	andi	t1,t1,2047
 8000d6e:	01f5d413          	srli	s0,a1,0x1f
 8000d72:	070e                	slli	a4,a4,0x3
 8000d74:	01f6d593          	srli	a1,a3,0x1f
 8000d78:	c806                	sw	ra,16(sp)
 8000d7a:	01d65693          	srli	a3,a2,0x1d
 8000d7e:	8f55                	or	a4,a4,a3
 8000d80:	050e                	slli	a0,a0,0x3
 8000d82:	060e                	slli	a2,a2,0x3
 8000d84:	406486b3          	sub	a3,s1,t1
 8000d88:	22b41463          	bne	s0,a1,8000fb0 <__adddf3+0x26e>
 8000d8c:	0ed05263          	blez	a3,8000e70 <__adddf3+0x12e>
 8000d90:	02031863          	bnez	t1,8000dc0 <__adddf3+0x7e>
 8000d94:	00c765b3          	or	a1,a4,a2
 8000d98:	20058a63          	beqz	a1,8000fac <__adddf3+0x26a>
 8000d9c:	fff68593          	addi	a1,a3,-1
 8000da0:	e989                	bnez	a1,8000db2 <__adddf3+0x70>
 8000da2:	962a                	add	a2,a2,a0
 8000da4:	00a63533          	sltu	a0,a2,a0
 8000da8:	97ba                	add	a5,a5,a4
 8000daa:	97aa                	add	a5,a5,a0
 8000dac:	8532                	mv	a0,a2
 8000dae:	4485                	li	s1,1
 8000db0:	a8b9                	j	8000e0e <__adddf3+0xcc>
 8000db2:	7ff00313          	li	t1,2047
 8000db6:	00669d63          	bne	a3,t1,8000dd0 <__adddf3+0x8e>
 8000dba:	7ff00493          	li	s1,2047
 8000dbe:	aa71                	j	8000f5a <__adddf3+0x218>
 8000dc0:	7ff00593          	li	a1,2047
 8000dc4:	18b48b63          	beq	s1,a1,8000f5a <__adddf3+0x218>
 8000dc8:	008005b7          	lui	a1,0x800
 8000dcc:	8f4d                	or	a4,a4,a1
 8000dce:	85b6                	mv	a1,a3
 8000dd0:	03800693          	li	a3,56
 8000dd4:	08b6ca63          	blt	a3,a1,8000e68 <__adddf3+0x126>
 8000dd8:	46fd                	li	a3,31
 8000dda:	06b6c163          	blt	a3,a1,8000e3c <__adddf3+0xfa>
 8000dde:	02000313          	li	t1,32
 8000de2:	40b30333          	sub	t1,t1,a1
 8000de6:	006716b3          	sll	a3,a4,t1
 8000dea:	00b652b3          	srl	t0,a2,a1
 8000dee:	00661633          	sll	a2,a2,t1
 8000df2:	0056e6b3          	or	a3,a3,t0
 8000df6:	00c03633          	snez	a2,a2
 8000dfa:	8e55                	or	a2,a2,a3
 8000dfc:	00b75733          	srl	a4,a4,a1
 8000e00:	962a                	add	a2,a2,a0
 8000e02:	00a63533          	sltu	a0,a2,a0
 8000e06:	973e                	add	a4,a4,a5
 8000e08:	00a707b3          	add	a5,a4,a0
 8000e0c:	8532                	mv	a0,a2
 8000e0e:	00800737          	lui	a4,0x800
 8000e12:	8f7d                	and	a4,a4,a5
 8000e14:	14070363          	beqz	a4,8000f5a <__adddf3+0x218>
 8000e18:	0485                	addi	s1,s1,1
 8000e1a:	7ff00713          	li	a4,2047
 8000e1e:	48e48b63          	beq	s1,a4,80012b4 <__adddf3+0x572>
 8000e22:	ff800737          	lui	a4,0xff800
 8000e26:	177d                	addi	a4,a4,-1
 8000e28:	8ff9                	and	a5,a5,a4
 8000e2a:	00155713          	srli	a4,a0,0x1
 8000e2e:	8905                	andi	a0,a0,1
 8000e30:	8d59                	or	a0,a0,a4
 8000e32:	01f79713          	slli	a4,a5,0x1f
 8000e36:	8d59                	or	a0,a0,a4
 8000e38:	8385                	srli	a5,a5,0x1
 8000e3a:	a205                	j	8000f5a <__adddf3+0x218>
 8000e3c:	fe058693          	addi	a3,a1,-32 # 7fffe0 <__min_heap_size+0x7ff7e0>
 8000e40:	02000293          	li	t0,32
 8000e44:	00d756b3          	srl	a3,a4,a3
 8000e48:	4301                	li	t1,0
 8000e4a:	00558863          	beq	a1,t0,8000e5a <__adddf3+0x118>
 8000e4e:	04000313          	li	t1,64
 8000e52:	40b305b3          	sub	a1,t1,a1
 8000e56:	00b71333          	sll	t1,a4,a1
 8000e5a:	00c36633          	or	a2,t1,a2
 8000e5e:	00c03633          	snez	a2,a2
 8000e62:	8e55                	or	a2,a2,a3
 8000e64:	4701                	li	a4,0
 8000e66:	bf69                	j	8000e00 <__adddf3+0xbe>
 8000e68:	8e59                	or	a2,a2,a4
 8000e6a:	00c03633          	snez	a2,a2
 8000e6e:	bfdd                	j	8000e64 <__adddf3+0x122>
 8000e70:	cacd                	beqz	a3,8000f22 <__adddf3+0x1e0>
 8000e72:	409305b3          	sub	a1,t1,s1
 8000e76:	e48d                	bnez	s1,8000ea0 <__adddf3+0x15e>
 8000e78:	00a7e6b3          	or	a3,a5,a0
 8000e7c:	42068363          	beqz	a3,80012a2 <__adddf3+0x560>
 8000e80:	fff58693          	addi	a3,a1,-1
 8000e84:	e699                	bnez	a3,8000e92 <__adddf3+0x150>
 8000e86:	9532                	add	a0,a0,a2
 8000e88:	97ba                	add	a5,a5,a4
 8000e8a:	00c53633          	sltu	a2,a0,a2
 8000e8e:	97b2                	add	a5,a5,a2
 8000e90:	bf39                	j	8000dae <__adddf3+0x6c>
 8000e92:	7ff00293          	li	t0,2047
 8000e96:	00559d63          	bne	a1,t0,8000eb0 <__adddf3+0x16e>
 8000e9a:	87ba                	mv	a5,a4
 8000e9c:	8532                	mv	a0,a2
 8000e9e:	bf31                	j	8000dba <__adddf3+0x78>
 8000ea0:	7ff00693          	li	a3,2047
 8000ea4:	fed30be3          	beq	t1,a3,8000e9a <__adddf3+0x158>
 8000ea8:	008006b7          	lui	a3,0x800
 8000eac:	8fd5                	or	a5,a5,a3
 8000eae:	86ae                	mv	a3,a1
 8000eb0:	03800593          	li	a1,56
 8000eb4:	06d5c363          	blt	a1,a3,8000f1a <__adddf3+0x1d8>
 8000eb8:	45fd                	li	a1,31
 8000eba:	02d5ca63          	blt	a1,a3,8000eee <__adddf3+0x1ac>
 8000ebe:	02000293          	li	t0,32
 8000ec2:	40d282b3          	sub	t0,t0,a3
 8000ec6:	005795b3          	sll	a1,a5,t0
 8000eca:	00d553b3          	srl	t2,a0,a3
 8000ece:	00551533          	sll	a0,a0,t0
 8000ed2:	0075e5b3          	or	a1,a1,t2
 8000ed6:	00a03533          	snez	a0,a0
 8000eda:	8d4d                	or	a0,a0,a1
 8000edc:	00d7d7b3          	srl	a5,a5,a3
 8000ee0:	9532                	add	a0,a0,a2
 8000ee2:	97ba                	add	a5,a5,a4
 8000ee4:	00c53633          	sltu	a2,a0,a2
 8000ee8:	97b2                	add	a5,a5,a2
 8000eea:	849a                	mv	s1,t1
 8000eec:	b70d                	j	8000e0e <__adddf3+0xcc>
 8000eee:	fe068593          	addi	a1,a3,-32 # 7fffe0 <__min_heap_size+0x7ff7e0>
 8000ef2:	02000393          	li	t2,32
 8000ef6:	00b7d5b3          	srl	a1,a5,a1
 8000efa:	4281                	li	t0,0
 8000efc:	00768863          	beq	a3,t2,8000f0c <__adddf3+0x1ca>
 8000f00:	04000293          	li	t0,64
 8000f04:	40d286b3          	sub	a3,t0,a3
 8000f08:	00d792b3          	sll	t0,a5,a3
 8000f0c:	00a2e533          	or	a0,t0,a0
 8000f10:	00a03533          	snez	a0,a0
 8000f14:	8d4d                	or	a0,a0,a1
 8000f16:	4781                	li	a5,0
 8000f18:	b7e1                	j	8000ee0 <__adddf3+0x19e>
 8000f1a:	8d5d                	or	a0,a0,a5
 8000f1c:	00a03533          	snez	a0,a0
 8000f20:	bfdd                	j	8000f16 <__adddf3+0x1d4>
 8000f22:	00148693          	addi	a3,s1,1
 8000f26:	7fe6f593          	andi	a1,a3,2046
 8000f2a:	e1bd                	bnez	a1,8000f90 <__adddf3+0x24e>
 8000f2c:	00a7e6b3          	or	a3,a5,a0
 8000f30:	e4a9                	bnez	s1,8000f7a <__adddf3+0x238>
 8000f32:	36068c63          	beqz	a3,80012aa <__adddf3+0x568>
 8000f36:	00c766b3          	or	a3,a4,a2
 8000f3a:	c285                	beqz	a3,8000f5a <__adddf3+0x218>
 8000f3c:	962a                	add	a2,a2,a0
 8000f3e:	97ba                	add	a5,a5,a4
 8000f40:	00a63533          	sltu	a0,a2,a0
 8000f44:	97aa                	add	a5,a5,a0
 8000f46:	00800737          	lui	a4,0x800
 8000f4a:	8f7d                	and	a4,a4,a5
 8000f4c:	8532                	mv	a0,a2
 8000f4e:	c711                	beqz	a4,8000f5a <__adddf3+0x218>
 8000f50:	ff800737          	lui	a4,0xff800
 8000f54:	177d                	addi	a4,a4,-1
 8000f56:	8ff9                	and	a5,a5,a4
 8000f58:	4485                	li	s1,1
 8000f5a:	00757713          	andi	a4,a0,7
 8000f5e:	34070d63          	beqz	a4,80012b8 <__adddf3+0x576>
 8000f62:	00f57713          	andi	a4,a0,15
 8000f66:	4691                	li	a3,4
 8000f68:	34d70863          	beq	a4,a3,80012b8 <__adddf3+0x576>
 8000f6c:	00450713          	addi	a4,a0,4
 8000f70:	00a73533          	sltu	a0,a4,a0
 8000f74:	97aa                	add	a5,a5,a0
 8000f76:	853a                	mv	a0,a4
 8000f78:	a681                	j	80012b8 <__adddf3+0x576>
 8000f7a:	d285                	beqz	a3,8000e9a <__adddf3+0x158>
 8000f7c:	8e59                	or	a2,a2,a4
 8000f7e:	e2060ee3          	beqz	a2,8000dba <__adddf3+0x78>
 8000f82:	4401                	li	s0,0
 8000f84:	004007b7          	lui	a5,0x400
 8000f88:	4501                	li	a0,0
 8000f8a:	7ff00493          	li	s1,2047
 8000f8e:	a62d                	j	80012b8 <__adddf3+0x576>
 8000f90:	7ff00593          	li	a1,2047
 8000f94:	30b68e63          	beq	a3,a1,80012b0 <__adddf3+0x56e>
 8000f98:	962a                	add	a2,a2,a0
 8000f9a:	00a63533          	sltu	a0,a2,a0
 8000f9e:	97ba                	add	a5,a5,a4
 8000fa0:	97aa                	add	a5,a5,a0
 8000fa2:	01f79513          	slli	a0,a5,0x1f
 8000fa6:	8205                	srli	a2,a2,0x1
 8000fa8:	8d51                	or	a0,a0,a2
 8000faa:	8385                	srli	a5,a5,0x1
 8000fac:	84b6                	mv	s1,a3
 8000fae:	b775                	j	8000f5a <__adddf3+0x218>
 8000fb0:	0cd05463          	blez	a3,8001078 <__adddf3+0x336>
 8000fb4:	06031f63          	bnez	t1,8001032 <__adddf3+0x2f0>
 8000fb8:	00c765b3          	or	a1,a4,a2
 8000fbc:	d9e5                	beqz	a1,8000fac <__adddf3+0x26a>
 8000fbe:	fff68593          	addi	a1,a3,-1
 8000fc2:	e991                	bnez	a1,8000fd6 <__adddf3+0x294>
 8000fc4:	40c50633          	sub	a2,a0,a2
 8000fc8:	00c53533          	sltu	a0,a0,a2
 8000fcc:	8f99                	sub	a5,a5,a4
 8000fce:	8f89                	sub	a5,a5,a0
 8000fd0:	8532                	mv	a0,a2
 8000fd2:	4485                	li	s1,1
 8000fd4:	a0b1                	j	8001020 <__adddf3+0x2de>
 8000fd6:	7ff00313          	li	t1,2047
 8000fda:	de6680e3          	beq	a3,t1,8000dba <__adddf3+0x78>
 8000fde:	03800693          	li	a3,56
 8000fe2:	08b6c763          	blt	a3,a1,8001070 <__adddf3+0x32e>
 8000fe6:	46fd                	li	a3,31
 8000fe8:	04b6ce63          	blt	a3,a1,8001044 <__adddf3+0x302>
 8000fec:	02000313          	li	t1,32
 8000ff0:	40b30333          	sub	t1,t1,a1
 8000ff4:	006716b3          	sll	a3,a4,t1
 8000ff8:	00b652b3          	srl	t0,a2,a1
 8000ffc:	00661633          	sll	a2,a2,t1
 8001000:	0056e6b3          	or	a3,a3,t0
 8001004:	00c03633          	snez	a2,a2
 8001008:	8e55                	or	a2,a2,a3
 800100a:	00b75733          	srl	a4,a4,a1
 800100e:	40c50633          	sub	a2,a0,a2
 8001012:	00c53533          	sltu	a0,a0,a2
 8001016:	40e78733          	sub	a4,a5,a4
 800101a:	40a707b3          	sub	a5,a4,a0
 800101e:	8532                	mv	a0,a2
 8001020:	008006b7          	lui	a3,0x800
 8001024:	00d7f733          	and	a4,a5,a3
 8001028:	db0d                	beqz	a4,8000f5a <__adddf3+0x218>
 800102a:	16fd                	addi	a3,a3,-1
 800102c:	8efd                	and	a3,a3,a5
 800102e:	832a                	mv	t1,a0
 8001030:	aa55                	j	80011e4 <__adddf3+0x4a2>
 8001032:	7ff00593          	li	a1,2047
 8001036:	f2b482e3          	beq	s1,a1,8000f5a <__adddf3+0x218>
 800103a:	008005b7          	lui	a1,0x800
 800103e:	8f4d                	or	a4,a4,a1
 8001040:	85b6                	mv	a1,a3
 8001042:	bf71                	j	8000fde <__adddf3+0x29c>
 8001044:	fe058693          	addi	a3,a1,-32 # 7fffe0 <__min_heap_size+0x7ff7e0>
 8001048:	02000293          	li	t0,32
 800104c:	00d756b3          	srl	a3,a4,a3
 8001050:	4301                	li	t1,0
 8001052:	00558863          	beq	a1,t0,8001062 <__adddf3+0x320>
 8001056:	04000313          	li	t1,64
 800105a:	40b305b3          	sub	a1,t1,a1
 800105e:	00b71333          	sll	t1,a4,a1
 8001062:	00c36633          	or	a2,t1,a2
 8001066:	00c03633          	snez	a2,a2
 800106a:	8e55                	or	a2,a2,a3
 800106c:	4701                	li	a4,0
 800106e:	b745                	j	800100e <__adddf3+0x2cc>
 8001070:	8e59                	or	a2,a2,a4
 8001072:	00c03633          	snez	a2,a2
 8001076:	bfdd                	j	800106c <__adddf3+0x32a>
 8001078:	c2f9                	beqz	a3,800113e <__adddf3+0x3fc>
 800107a:	409302b3          	sub	t0,t1,s1
 800107e:	e895                	bnez	s1,80010b2 <__adddf3+0x370>
 8001080:	00a7e6b3          	or	a3,a5,a0
 8001084:	28068863          	beqz	a3,8001314 <__adddf3+0x5d2>
 8001088:	fff28693          	addi	a3,t0,-1 # ffffff <__min_heap_size+0xfff7ff>
 800108c:	ea91                	bnez	a3,80010a0 <__adddf3+0x35e>
 800108e:	40a60533          	sub	a0,a2,a0
 8001092:	40f707b3          	sub	a5,a4,a5
 8001096:	00a63633          	sltu	a2,a2,a0
 800109a:	8f91                	sub	a5,a5,a2
 800109c:	842e                	mv	s0,a1
 800109e:	bf15                	j	8000fd2 <__adddf3+0x290>
 80010a0:	7ff00393          	li	t2,2047
 80010a4:	00729f63          	bne	t0,t2,80010c2 <__adddf3+0x380>
 80010a8:	87ba                	mv	a5,a4
 80010aa:	8532                	mv	a0,a2
 80010ac:	7ff00493          	li	s1,2047
 80010b0:	a07d                	j	800115e <__adddf3+0x41c>
 80010b2:	7ff00693          	li	a3,2047
 80010b6:	fed309e3          	beq	t1,a3,80010a8 <__adddf3+0x366>
 80010ba:	008006b7          	lui	a3,0x800
 80010be:	8fd5                	or	a5,a5,a3
 80010c0:	8696                	mv	a3,t0
 80010c2:	03800293          	li	t0,56
 80010c6:	06d2c863          	blt	t0,a3,8001136 <__adddf3+0x3f4>
 80010ca:	42fd                	li	t0,31
 80010cc:	02d2ce63          	blt	t0,a3,8001108 <__adddf3+0x3c6>
 80010d0:	02000393          	li	t2,32
 80010d4:	40d383b3          	sub	t2,t2,a3
 80010d8:	007792b3          	sll	t0,a5,t2
 80010dc:	00d55433          	srl	s0,a0,a3
 80010e0:	00751533          	sll	a0,a0,t2
 80010e4:	0082e2b3          	or	t0,t0,s0
 80010e8:	00a03533          	snez	a0,a0
 80010ec:	00a2e533          	or	a0,t0,a0
 80010f0:	00d7d7b3          	srl	a5,a5,a3
 80010f4:	40a60533          	sub	a0,a2,a0
 80010f8:	40f707b3          	sub	a5,a4,a5
 80010fc:	00a63633          	sltu	a2,a2,a0
 8001100:	8f91                	sub	a5,a5,a2
 8001102:	849a                	mv	s1,t1
 8001104:	842e                	mv	s0,a1
 8001106:	bf29                	j	8001020 <__adddf3+0x2de>
 8001108:	fe068293          	addi	t0,a3,-32 # 7fffe0 <__min_heap_size+0x7ff7e0>
 800110c:	02000413          	li	s0,32
 8001110:	0057d2b3          	srl	t0,a5,t0
 8001114:	4381                	li	t2,0
 8001116:	00868863          	beq	a3,s0,8001126 <__adddf3+0x3e4>
 800111a:	04000393          	li	t2,64
 800111e:	40d386b3          	sub	a3,t2,a3
 8001122:	00d793b3          	sll	t2,a5,a3
 8001126:	00a3e533          	or	a0,t2,a0
 800112a:	00a03533          	snez	a0,a0
 800112e:	00a2e533          	or	a0,t0,a0
 8001132:	4781                	li	a5,0
 8001134:	b7c1                	j	80010f4 <__adddf3+0x3b2>
 8001136:	8d5d                	or	a0,a0,a5
 8001138:	00a03533          	snez	a0,a0
 800113c:	bfdd                	j	8001132 <__adddf3+0x3f0>
 800113e:	00148693          	addi	a3,s1,1
 8001142:	7fe6f693          	andi	a3,a3,2046
 8001146:	eaa5                	bnez	a3,80011b6 <__adddf3+0x474>
 8001148:	00a7e333          	or	t1,a5,a0
 800114c:	00c766b3          	or	a3,a4,a2
 8001150:	e8a1                	bnez	s1,80011a0 <__adddf3+0x45e>
 8001152:	00031863          	bnez	t1,8001162 <__adddf3+0x420>
 8001156:	1c068363          	beqz	a3,800131c <__adddf3+0x5da>
 800115a:	87ba                	mv	a5,a4
 800115c:	8532                	mv	a0,a2
 800115e:	842e                	mv	s0,a1
 8001160:	bbed                	j	8000f5a <__adddf3+0x218>
 8001162:	de068ce3          	beqz	a3,8000f5a <__adddf3+0x218>
 8001166:	40c50333          	sub	t1,a0,a2
 800116a:	006532b3          	sltu	t0,a0,t1
 800116e:	40e786b3          	sub	a3,a5,a4
 8001172:	405686b3          	sub	a3,a3,t0
 8001176:	008002b7          	lui	t0,0x800
 800117a:	0056f2b3          	and	t0,a3,t0
 800117e:	00028a63          	beqz	t0,8001192 <__adddf3+0x450>
 8001182:	40a60533          	sub	a0,a2,a0
 8001186:	40f707b3          	sub	a5,a4,a5
 800118a:	00a63633          	sltu	a2,a2,a0
 800118e:	8f91                	sub	a5,a5,a2
 8001190:	b7f9                	j	800115e <__adddf3+0x41c>
 8001192:	00d36533          	or	a0,t1,a3
 8001196:	18050763          	beqz	a0,8001324 <__adddf3+0x5e2>
 800119a:	87b6                	mv	a5,a3
 800119c:	851a                	mv	a0,t1
 800119e:	bb75                	j	8000f5a <__adddf3+0x218>
 80011a0:	00031863          	bnez	t1,80011b0 <__adddf3+0x46e>
 80011a4:	18068263          	beqz	a3,8001328 <__adddf3+0x5e6>
 80011a8:	87ba                	mv	a5,a4
 80011aa:	8532                	mv	a0,a2
 80011ac:	842e                	mv	s0,a1
 80011ae:	b131                	j	8000dba <__adddf3+0x78>
 80011b0:	c00685e3          	beqz	a3,8000dba <__adddf3+0x78>
 80011b4:	b3f9                	j	8000f82 <__adddf3+0x240>
 80011b6:	40c50333          	sub	t1,a0,a2
 80011ba:	006532b3          	sltu	t0,a0,t1
 80011be:	40e786b3          	sub	a3,a5,a4
 80011c2:	405686b3          	sub	a3,a3,t0
 80011c6:	008002b7          	lui	t0,0x800
 80011ca:	0056f2b3          	and	t0,a3,t0
 80011ce:	06028b63          	beqz	t0,8001244 <__adddf3+0x502>
 80011d2:	40a60333          	sub	t1,a2,a0
 80011d6:	40f707b3          	sub	a5,a4,a5
 80011da:	00663633          	sltu	a2,a2,t1
 80011de:	40c786b3          	sub	a3,a5,a2
 80011e2:	842e                	mv	s0,a1
 80011e4:	c6b5                	beqz	a3,8001250 <__adddf3+0x50e>
 80011e6:	8536                	mv	a0,a3
 80011e8:	c21a                	sw	t1,4(sp)
 80011ea:	c036                	sw	a3,0(sp)
 80011ec:	6f4010ef          	jal	ra,80028e0 <__clzsi2>
 80011f0:	4682                	lw	a3,0(sp)
 80011f2:	4312                	lw	t1,4(sp)
 80011f4:	ff850713          	addi	a4,a0,-8
 80011f8:	47fd                	li	a5,31
 80011fa:	06e7c563          	blt	a5,a4,8001264 <__adddf3+0x522>
 80011fe:	02000793          	li	a5,32
 8001202:	8f99                	sub	a5,a5,a4
 8001204:	00e696b3          	sll	a3,a3,a4
 8001208:	00f357b3          	srl	a5,t1,a5
 800120c:	8fd5                	or	a5,a5,a3
 800120e:	00e31533          	sll	a0,t1,a4
 8001212:	08974263          	blt	a4,s1,8001296 <__adddf3+0x554>
 8001216:	8f05                	sub	a4,a4,s1
 8001218:	00170613          	addi	a2,a4,1 # ff800001 <__e_f_text+0xf77cd5d9>
 800121c:	46fd                	li	a3,31
 800121e:	04c6c963          	blt	a3,a2,8001270 <__adddf3+0x52e>
 8001222:	02000713          	li	a4,32
 8001226:	8f11                	sub	a4,a4,a2
 8001228:	00e796b3          	sll	a3,a5,a4
 800122c:	00c555b3          	srl	a1,a0,a2
 8001230:	00e51533          	sll	a0,a0,a4
 8001234:	8ecd                	or	a3,a3,a1
 8001236:	00a03533          	snez	a0,a0
 800123a:	8d55                	or	a0,a0,a3
 800123c:	00c7d7b3          	srl	a5,a5,a2
 8001240:	4481                	li	s1,0
 8001242:	bb21                	j	8000f5a <__adddf3+0x218>
 8001244:	00d36533          	or	a0,t1,a3
 8001248:	fd51                	bnez	a0,80011e4 <__adddf3+0x4a2>
 800124a:	4781                	li	a5,0
 800124c:	4481                	li	s1,0
 800124e:	a8c9                	j	8001320 <__adddf3+0x5de>
 8001250:	851a                	mv	a0,t1
 8001252:	c236                	sw	a3,4(sp)
 8001254:	c01a                	sw	t1,0(sp)
 8001256:	68a010ef          	jal	ra,80028e0 <__clzsi2>
 800125a:	4692                	lw	a3,4(sp)
 800125c:	4302                	lw	t1,0(sp)
 800125e:	02050513          	addi	a0,a0,32
 8001262:	bf49                	j	80011f4 <__adddf3+0x4b2>
 8001264:	fd850793          	addi	a5,a0,-40
 8001268:	00f317b3          	sll	a5,t1,a5
 800126c:	4501                	li	a0,0
 800126e:	b755                	j	8001212 <__adddf3+0x4d0>
 8001270:	1705                	addi	a4,a4,-31
 8001272:	02000593          	li	a1,32
 8001276:	00e7d733          	srl	a4,a5,a4
 800127a:	4681                	li	a3,0
 800127c:	00b60763          	beq	a2,a1,800128a <__adddf3+0x548>
 8001280:	04000693          	li	a3,64
 8001284:	8e91                	sub	a3,a3,a2
 8001286:	00d796b3          	sll	a3,a5,a3
 800128a:	8d55                	or	a0,a0,a3
 800128c:	00a03533          	snez	a0,a0
 8001290:	8d59                	or	a0,a0,a4
 8001292:	4781                	li	a5,0
 8001294:	b775                	j	8001240 <__adddf3+0x4fe>
 8001296:	8c99                	sub	s1,s1,a4
 8001298:	ff800737          	lui	a4,0xff800
 800129c:	177d                	addi	a4,a4,-1
 800129e:	8ff9                	and	a5,a5,a4
 80012a0:	b96d                	j	8000f5a <__adddf3+0x218>
 80012a2:	87ba                	mv	a5,a4
 80012a4:	8532                	mv	a0,a2
 80012a6:	84ae                	mv	s1,a1
 80012a8:	b94d                	j	8000f5a <__adddf3+0x218>
 80012aa:	87ba                	mv	a5,a4
 80012ac:	8532                	mv	a0,a2
 80012ae:	b175                	j	8000f5a <__adddf3+0x218>
 80012b0:	7ff00493          	li	s1,2047
 80012b4:	4781                	li	a5,0
 80012b6:	4501                	li	a0,0
 80012b8:	00800737          	lui	a4,0x800
 80012bc:	8f7d                	and	a4,a4,a5
 80012be:	cb11                	beqz	a4,80012d2 <__adddf3+0x590>
 80012c0:	0485                	addi	s1,s1,1
 80012c2:	7ff00713          	li	a4,2047
 80012c6:	06e48663          	beq	s1,a4,8001332 <__adddf3+0x5f0>
 80012ca:	ff800737          	lui	a4,0xff800
 80012ce:	177d                	addi	a4,a4,-1
 80012d0:	8ff9                	and	a5,a5,a4
 80012d2:	01d79713          	slli	a4,a5,0x1d
 80012d6:	810d                	srli	a0,a0,0x3
 80012d8:	8d59                	or	a0,a0,a4
 80012da:	7ff00713          	li	a4,2047
 80012de:	838d                	srli	a5,a5,0x3
 80012e0:	00e49963          	bne	s1,a4,80012f2 <__adddf3+0x5b0>
 80012e4:	8d5d                	or	a0,a0,a5
 80012e6:	4781                	li	a5,0
 80012e8:	c509                	beqz	a0,80012f2 <__adddf3+0x5b0>
 80012ea:	000807b7          	lui	a5,0x80
 80012ee:	4501                	li	a0,0
 80012f0:	4401                	li	s0,0
 80012f2:	01449713          	slli	a4,s1,0x14
 80012f6:	7ff006b7          	lui	a3,0x7ff00
 80012fa:	07b2                	slli	a5,a5,0xc
 80012fc:	8f75                	and	a4,a4,a3
 80012fe:	83b1                	srli	a5,a5,0xc
 8001300:	047e                	slli	s0,s0,0x1f
 8001302:	8fd9                	or	a5,a5,a4
 8001304:	40c2                	lw	ra,16(sp)
 8001306:	0087e733          	or	a4,a5,s0
 800130a:	4432                	lw	s0,12(sp)
 800130c:	44a2                	lw	s1,8(sp)
 800130e:	85ba                	mv	a1,a4
 8001310:	0151                	addi	sp,sp,20
 8001312:	8082                	ret
 8001314:	87ba                	mv	a5,a4
 8001316:	8532                	mv	a0,a2
 8001318:	8496                	mv	s1,t0
 800131a:	b591                	j	800115e <__adddf3+0x41c>
 800131c:	4781                	li	a5,0
 800131e:	4501                	li	a0,0
 8001320:	4401                	li	s0,0
 8001322:	bf59                	j	80012b8 <__adddf3+0x576>
 8001324:	4781                	li	a5,0
 8001326:	bfed                	j	8001320 <__adddf3+0x5de>
 8001328:	4501                	li	a0,0
 800132a:	4401                	li	s0,0
 800132c:	004007b7          	lui	a5,0x400
 8001330:	b9a9                	j	8000f8a <__adddf3+0x248>
 8001332:	4781                	li	a5,0
 8001334:	4501                	li	a0,0
 8001336:	bf71                	j	80012d2 <__adddf3+0x590>

08001338 <__divdf3>:
 8001338:	fdc10113          	addi	sp,sp,-36
 800133c:	cc26                	sw	s1,24(sp)
 800133e:	872a                	mv	a4,a0
 8001340:	84b2                	mv	s1,a2
 8001342:	87aa                	mv	a5,a0
 8001344:	01f5d613          	srli	a2,a1,0x1f
 8001348:	0145d513          	srli	a0,a1,0x14
 800134c:	00c59313          	slli	t1,a1,0xc
 8001350:	d006                	sw	ra,32(sp)
 8001352:	ce22                	sw	s0,28(sp)
 8001354:	7ff57513          	andi	a0,a0,2047
 8001358:	c432                	sw	a2,8(sp)
 800135a:	00c35313          	srli	t1,t1,0xc
 800135e:	c551                	beqz	a0,80013ea <__divdf3+0xb2>
 8001360:	7ff00593          	li	a1,2047
 8001364:	0eb50863          	beq	a0,a1,8001454 <__divdf3+0x11c>
 8001368:	01d75413          	srli	s0,a4,0x1d
 800136c:	030e                	slli	t1,t1,0x3
 800136e:	008007b7          	lui	a5,0x800
 8001372:	00646433          	or	s0,s0,t1
 8001376:	8c5d                	or	s0,s0,a5
 8001378:	c0150613          	addi	a2,a0,-1023
 800137c:	00371793          	slli	a5,a4,0x3
 8001380:	4301                	li	t1,0
 8001382:	0146d513          	srli	a0,a3,0x14
 8001386:	01f6d713          	srli	a4,a3,0x1f
 800138a:	00c69393          	slli	t2,a3,0xc
 800138e:	7ff57513          	andi	a0,a0,2047
 8001392:	c63a                	sw	a4,12(sp)
 8001394:	00c3d393          	srli	t2,t2,0xc
 8001398:	cd79                	beqz	a0,8001476 <__divdf3+0x13e>
 800139a:	7ff00713          	li	a4,2047
 800139e:	14e50763          	beq	a0,a4,80014ec <__divdf3+0x1b4>
 80013a2:	01d4d713          	srli	a4,s1,0x1d
 80013a6:	038e                	slli	t2,t2,0x3
 80013a8:	007763b3          	or	t2,a4,t2
 80013ac:	008006b7          	lui	a3,0x800
 80013b0:	00d3e3b3          	or	t2,t2,a3
 80013b4:	00349713          	slli	a4,s1,0x3
 80013b8:	c0150513          	addi	a0,a0,-1023
 80013bc:	4681                	li	a3,0
 80013be:	45a2                	lw	a1,8(sp)
 80013c0:	44b2                	lw	s1,12(sp)
 80013c2:	8e09                	sub	a2,a2,a0
 80013c4:	c232                	sw	a2,4(sp)
 80013c6:	00231613          	slli	a2,t1,0x2
 80013ca:	8da5                	xor	a1,a1,s1
 80013cc:	8e55                	or	a2,a2,a3
 80013ce:	c02e                	sw	a1,0(sp)
 80013d0:	167d                	addi	a2,a2,-1
 80013d2:	45b9                	li	a1,14
 80013d4:	12c5ed63          	bltu	a1,a2,800150e <__divdf3+0x1d6>
 80013d8:	0002c597          	auipc	a1,0x2c
 80013dc:	53058593          	addi	a1,a1,1328 # 802d908 <__srodata+0xe8>
 80013e0:	060a                	slli	a2,a2,0x2
 80013e2:	962e                	add	a2,a2,a1
 80013e4:	4210                	lw	a2,0(a2)
 80013e6:	962e                	add	a2,a2,a1
 80013e8:	8602                	jr	a2
 80013ea:	00e36433          	or	s0,t1,a4
 80013ee:	c83d                	beqz	s0,8001464 <__divdf3+0x12c>
 80013f0:	c636                	sw	a3,12(sp)
 80013f2:	04030063          	beqz	t1,8001432 <__divdf3+0xfa>
 80013f6:	851a                	mv	a0,t1
 80013f8:	c23a                	sw	a4,4(sp)
 80013fa:	c01a                	sw	t1,0(sp)
 80013fc:	4e4010ef          	jal	ra,80028e0 <__clzsi2>
 8001400:	4302                	lw	t1,0(sp)
 8001402:	4712                	lw	a4,4(sp)
 8001404:	46b2                	lw	a3,12(sp)
 8001406:	ff550593          	addi	a1,a0,-11
 800140a:	47f1                	li	a5,28
 800140c:	02b7ce63          	blt	a5,a1,8001448 <__divdf3+0x110>
 8001410:	4475                	li	s0,29
 8001412:	ff850793          	addi	a5,a0,-8
 8001416:	8c0d                	sub	s0,s0,a1
 8001418:	00f31333          	sll	t1,t1,a5
 800141c:	00875433          	srl	s0,a4,s0
 8001420:	00646433          	or	s0,s0,t1
 8001424:	00f717b3          	sll	a5,a4,a5
 8001428:	c0d00593          	li	a1,-1011
 800142c:	40a58633          	sub	a2,a1,a0
 8001430:	bf81                	j	8001380 <__divdf3+0x48>
 8001432:	853a                	mv	a0,a4
 8001434:	c21a                	sw	t1,4(sp)
 8001436:	c03a                	sw	a4,0(sp)
 8001438:	4a8010ef          	jal	ra,80028e0 <__clzsi2>
 800143c:	46b2                	lw	a3,12(sp)
 800143e:	4312                	lw	t1,4(sp)
 8001440:	4702                	lw	a4,0(sp)
 8001442:	02050513          	addi	a0,a0,32
 8001446:	b7c1                	j	8001406 <__divdf3+0xce>
 8001448:	fd850413          	addi	s0,a0,-40
 800144c:	00871433          	sll	s0,a4,s0
 8001450:	4781                	li	a5,0
 8001452:	bfd9                	j	8001428 <__divdf3+0xf0>
 8001454:	00e36433          	or	s0,t1,a4
 8001458:	c811                	beqz	s0,800146c <__divdf3+0x134>
 800145a:	841a                	mv	s0,t1
 800145c:	7ff00613          	li	a2,2047
 8001460:	430d                	li	t1,3
 8001462:	b705                	j	8001382 <__divdf3+0x4a>
 8001464:	4781                	li	a5,0
 8001466:	4601                	li	a2,0
 8001468:	4305                	li	t1,1
 800146a:	bf21                	j	8001382 <__divdf3+0x4a>
 800146c:	4781                	li	a5,0
 800146e:	7ff00613          	li	a2,2047
 8001472:	4309                	li	t1,2
 8001474:	b739                	j	8001382 <__divdf3+0x4a>
 8001476:	0093e733          	or	a4,t2,s1
 800147a:	c349                	beqz	a4,80014fc <__divdf3+0x1c4>
 800147c:	04038463          	beqz	t2,80014c4 <__divdf3+0x18c>
 8001480:	851e                	mv	a0,t2
 8001482:	ca1a                	sw	t1,20(sp)
 8001484:	c832                	sw	a2,16(sp)
 8001486:	c23e                	sw	a5,4(sp)
 8001488:	c01e                	sw	t2,0(sp)
 800148a:	456010ef          	jal	ra,80028e0 <__clzsi2>
 800148e:	4382                	lw	t2,0(sp)
 8001490:	4792                	lw	a5,4(sp)
 8001492:	4642                	lw	a2,16(sp)
 8001494:	4352                	lw	t1,20(sp)
 8001496:	ff550293          	addi	t0,a0,-11
 800149a:	4771                	li	a4,28
 800149c:	04574263          	blt	a4,t0,80014e0 <__divdf3+0x1a8>
 80014a0:	46f5                	li	a3,29
 80014a2:	ff850713          	addi	a4,a0,-8
 80014a6:	405686b3          	sub	a3,a3,t0
 80014aa:	00e393b3          	sll	t2,t2,a4
 80014ae:	00d4d6b3          	srl	a3,s1,a3
 80014b2:	0076e3b3          	or	t2,a3,t2
 80014b6:	00e49733          	sll	a4,s1,a4
 80014ba:	c0d00693          	li	a3,-1011
 80014be:	40a68533          	sub	a0,a3,a0
 80014c2:	bded                	j	80013bc <__divdf3+0x84>
 80014c4:	8526                	mv	a0,s1
 80014c6:	ca1e                	sw	t2,20(sp)
 80014c8:	c81a                	sw	t1,16(sp)
 80014ca:	c232                	sw	a2,4(sp)
 80014cc:	c03e                	sw	a5,0(sp)
 80014ce:	412010ef          	jal	ra,80028e0 <__clzsi2>
 80014d2:	43d2                	lw	t2,20(sp)
 80014d4:	4342                	lw	t1,16(sp)
 80014d6:	4612                	lw	a2,4(sp)
 80014d8:	4782                	lw	a5,0(sp)
 80014da:	02050513          	addi	a0,a0,32
 80014de:	bf65                	j	8001496 <__divdf3+0x15e>
 80014e0:	fd850393          	addi	t2,a0,-40
 80014e4:	007493b3          	sll	t2,s1,t2
 80014e8:	4701                	li	a4,0
 80014ea:	bfc1                	j	80014ba <__divdf3+0x182>
 80014ec:	0093e733          	or	a4,t2,s1
 80014f0:	cb11                	beqz	a4,8001504 <__divdf3+0x1cc>
 80014f2:	8726                	mv	a4,s1
 80014f4:	7ff00513          	li	a0,2047
 80014f8:	468d                	li	a3,3
 80014fa:	b5d1                	j	80013be <__divdf3+0x86>
 80014fc:	4381                	li	t2,0
 80014fe:	4501                	li	a0,0
 8001500:	4685                	li	a3,1
 8001502:	bd75                	j	80013be <__divdf3+0x86>
 8001504:	4381                	li	t2,0
 8001506:	7ff00513          	li	a0,2047
 800150a:	4689                	li	a3,2
 800150c:	bd4d                	j	80013be <__divdf3+0x86>
 800150e:	0083e663          	bltu	t2,s0,800151a <__divdf3+0x1e2>
 8001512:	2c741263          	bne	s0,t2,80017d6 <__divdf3+0x49e>
 8001516:	2ce7e063          	bltu	a5,a4,80017d6 <__divdf3+0x49e>
 800151a:	01f41613          	slli	a2,s0,0x1f
 800151e:	0017d693          	srli	a3,a5,0x1
 8001522:	01f79513          	slli	a0,a5,0x1f
 8001526:	8005                	srli	s0,s0,0x1
 8001528:	00d667b3          	or	a5,a2,a3
 800152c:	03a2                	slli	t2,t2,0x8
 800152e:	0103d493          	srli	s1,t2,0x10
 8001532:	02945333          	divu	t1,s0,s1
 8001536:	01875613          	srli	a2,a4,0x18
 800153a:	00766633          	or	a2,a2,t2
 800153e:	00871593          	slli	a1,a4,0x8
 8001542:	01061713          	slli	a4,a2,0x10
 8001546:	8341                	srli	a4,a4,0x10
 8001548:	c43a                	sw	a4,8(sp)
 800154a:	0107d693          	srli	a3,a5,0x10
 800154e:	02947433          	remu	s0,s0,s1
 8001552:	02670733          	mul	a4,a4,t1
 8001556:	0442                	slli	s0,s0,0x10
 8001558:	8c55                	or	s0,s0,a3
 800155a:	869a                	mv	a3,t1
 800155c:	00e47c63          	bgeu	s0,a4,8001574 <__divdf3+0x23c>
 8001560:	9432                	add	s0,s0,a2
 8001562:	fff30693          	addi	a3,t1,-1 # fffff <__min_heap_size+0xff7ff>
 8001566:	00c46763          	bltu	s0,a2,8001574 <__divdf3+0x23c>
 800156a:	00e47563          	bgeu	s0,a4,8001574 <__divdf3+0x23c>
 800156e:	ffe30693          	addi	a3,t1,-2
 8001572:	9432                	add	s0,s0,a2
 8001574:	8c19                	sub	s0,s0,a4
 8001576:	029452b3          	divu	t0,s0,s1
 800157a:	01061713          	slli	a4,a2,0x10
 800157e:	8341                	srli	a4,a4,0x10
 8001580:	07c2                	slli	a5,a5,0x10
 8001582:	83c1                	srli	a5,a5,0x10
 8001584:	02947433          	remu	s0,s0,s1
 8001588:	8396                	mv	t2,t0
 800158a:	02570333          	mul	t1,a4,t0
 800158e:	0442                	slli	s0,s0,0x10
 8001590:	8fc1                	or	a5,a5,s0
 8001592:	0067fc63          	bgeu	a5,t1,80015aa <__divdf3+0x272>
 8001596:	97b2                	add	a5,a5,a2
 8001598:	fff28393          	addi	t2,t0,-1 # 7fffff <__min_heap_size+0x7ff7ff>
 800159c:	00c7e763          	bltu	a5,a2,80015aa <__divdf3+0x272>
 80015a0:	0067f563          	bgeu	a5,t1,80015aa <__divdf3+0x272>
 80015a4:	ffe28393          	addi	t2,t0,-2
 80015a8:	97b2                	add	a5,a5,a2
 80015aa:	06c2                	slli	a3,a3,0x10
 80015ac:	6441                	lui	s0,0x10
 80015ae:	0076e6b3          	or	a3,a3,t2
 80015b2:	fff40713          	addi	a4,s0,-1 # ffff <__min_heap_size+0xf7ff>
 80015b6:	00e6f2b3          	and	t0,a3,a4
 80015ba:	406787b3          	sub	a5,a5,t1
 80015be:	8f6d                	and	a4,a4,a1
 80015c0:	0106d313          	srli	t1,a3,0x10
 80015c4:	025703b3          	mul	t2,a4,t0
 80015c8:	c43a                	sw	a4,8(sp)
 80015ca:	02e30733          	mul	a4,t1,a4
 80015ce:	c63a                	sw	a4,12(sp)
 80015d0:	0105d713          	srli	a4,a1,0x10
 80015d4:	025702b3          	mul	t0,a4,t0
 80015d8:	02e30333          	mul	t1,t1,a4
 80015dc:	4732                	lw	a4,12(sp)
 80015de:	92ba                	add	t0,t0,a4
 80015e0:	0103d713          	srli	a4,t2,0x10
 80015e4:	9716                	add	a4,a4,t0
 80015e6:	42b2                	lw	t0,12(sp)
 80015e8:	00577363          	bgeu	a4,t0,80015ee <__divdf3+0x2b6>
 80015ec:	9322                	add	t1,t1,s0
 80015ee:	6441                	lui	s0,0x10
 80015f0:	147d                	addi	s0,s0,-1
 80015f2:	01075293          	srli	t0,a4,0x10
 80015f6:	8f61                	and	a4,a4,s0
 80015f8:	0742                	slli	a4,a4,0x10
 80015fa:	0083f3b3          	and	t2,t2,s0
 80015fe:	9316                	add	t1,t1,t0
 8001600:	971e                	add	a4,a4,t2
 8001602:	0067e763          	bltu	a5,t1,8001610 <__divdf3+0x2d8>
 8001606:	83b6                	mv	t2,a3
 8001608:	02679e63          	bne	a5,t1,8001644 <__divdf3+0x30c>
 800160c:	02e57c63          	bgeu	a0,a4,8001644 <__divdf3+0x30c>
 8001610:	952e                	add	a0,a0,a1
 8001612:	00b532b3          	sltu	t0,a0,a1
 8001616:	92b2                	add	t0,t0,a2
 8001618:	9796                	add	a5,a5,t0
 800161a:	fff68393          	addi	t2,a3,-1 # 7fffff <__min_heap_size+0x7ff7ff>
 800161e:	00f66663          	bltu	a2,a5,800162a <__divdf3+0x2f2>
 8001622:	02f61163          	bne	a2,a5,8001644 <__divdf3+0x30c>
 8001626:	00b56f63          	bltu	a0,a1,8001644 <__divdf3+0x30c>
 800162a:	0067e663          	bltu	a5,t1,8001636 <__divdf3+0x2fe>
 800162e:	00f31b63          	bne	t1,a5,8001644 <__divdf3+0x30c>
 8001632:	00e57963          	bgeu	a0,a4,8001644 <__divdf3+0x30c>
 8001636:	952e                	add	a0,a0,a1
 8001638:	ffe68393          	addi	t2,a3,-2
 800163c:	00b536b3          	sltu	a3,a0,a1
 8001640:	96b2                	add	a3,a3,a2
 8001642:	97b6                	add	a5,a5,a3
 8001644:	40e502b3          	sub	t0,a0,a4
 8001648:	40678333          	sub	t1,a5,t1
 800164c:	00553533          	sltu	a0,a0,t0
 8001650:	40a30333          	sub	t1,t1,a0
 8001654:	577d                	li	a4,-1
 8001656:	10660063          	beq	a2,t1,8001756 <__divdf3+0x41e>
 800165a:	02935433          	divu	s0,t1,s1
 800165e:	01061793          	slli	a5,a2,0x10
 8001662:	83c1                	srli	a5,a5,0x10
 8001664:	0102d693          	srli	a3,t0,0x10
 8001668:	02878733          	mul	a4,a5,s0
 800166c:	029377b3          	remu	a5,t1,s1
 8001670:	07c2                	slli	a5,a5,0x10
 8001672:	8fd5                	or	a5,a5,a3
 8001674:	86a2                	mv	a3,s0
 8001676:	00e7fc63          	bgeu	a5,a4,800168e <__divdf3+0x356>
 800167a:	97b2                	add	a5,a5,a2
 800167c:	fff40693          	addi	a3,s0,-1 # ffff <__min_heap_size+0xf7ff>
 8001680:	00c7e763          	bltu	a5,a2,800168e <__divdf3+0x356>
 8001684:	00e7f563          	bgeu	a5,a4,800168e <__divdf3+0x356>
 8001688:	ffe40693          	addi	a3,s0,-2
 800168c:	97b2                	add	a5,a5,a2
 800168e:	40e78733          	sub	a4,a5,a4
 8001692:	02975333          	divu	t1,a4,s1
 8001696:	01061793          	slli	a5,a2,0x10
 800169a:	83c1                	srli	a5,a5,0x10
 800169c:	02678533          	mul	a0,a5,t1
 80016a0:	841a                	mv	s0,t1
 80016a2:	029777b3          	remu	a5,a4,s1
 80016a6:	01029713          	slli	a4,t0,0x10
 80016aa:	8341                	srli	a4,a4,0x10
 80016ac:	07c2                	slli	a5,a5,0x10
 80016ae:	8fd9                	or	a5,a5,a4
 80016b0:	00a7fc63          	bgeu	a5,a0,80016c8 <__divdf3+0x390>
 80016b4:	97b2                	add	a5,a5,a2
 80016b6:	fff30413          	addi	s0,t1,-1
 80016ba:	00c7e763          	bltu	a5,a2,80016c8 <__divdf3+0x390>
 80016be:	00a7f563          	bgeu	a5,a0,80016c8 <__divdf3+0x390>
 80016c2:	ffe30413          	addi	s0,t1,-2
 80016c6:	97b2                	add	a5,a5,a2
 80016c8:	06c2                	slli	a3,a3,0x10
 80016ca:	8ec1                	or	a3,a3,s0
 80016cc:	4422                	lw	s0,8(sp)
 80016ce:	8f89                	sub	a5,a5,a0
 80016d0:	4522                	lw	a0,8(sp)
 80016d2:	0106d293          	srli	t0,a3,0x10
 80016d6:	01069713          	slli	a4,a3,0x10
 80016da:	02828333          	mul	t1,t0,s0
 80016de:	8341                	srli	a4,a4,0x10
 80016e0:	0105d413          	srli	s0,a1,0x10
 80016e4:	02a70533          	mul	a0,a4,a0
 80016e8:	02e40733          	mul	a4,s0,a4
 80016ec:	025402b3          	mul	t0,s0,t0
 80016f0:	971a                	add	a4,a4,t1
 80016f2:	01055413          	srli	s0,a0,0x10
 80016f6:	9722                	add	a4,a4,s0
 80016f8:	00677463          	bgeu	a4,t1,8001700 <__divdf3+0x3c8>
 80016fc:	6341                	lui	t1,0x10
 80016fe:	929a                	add	t0,t0,t1
 8001700:	01075313          	srli	t1,a4,0x10
 8001704:	929a                	add	t0,t0,t1
 8001706:	6341                	lui	t1,0x10
 8001708:	137d                	addi	t1,t1,-1
 800170a:	00677733          	and	a4,a4,t1
 800170e:	0742                	slli	a4,a4,0x10
 8001710:	00657533          	and	a0,a0,t1
 8001714:	953a                	add	a0,a0,a4
 8001716:	0057e663          	bltu	a5,t0,8001722 <__divdf3+0x3ea>
 800171a:	1a579663          	bne	a5,t0,80018c6 <__divdf3+0x58e>
 800171e:	8736                	mv	a4,a3
 8001720:	c91d                	beqz	a0,8001756 <__divdf3+0x41e>
 8001722:	97b2                	add	a5,a5,a2
 8001724:	fff68713          	addi	a4,a3,-1
 8001728:	02c7e163          	bltu	a5,a2,800174a <__divdf3+0x412>
 800172c:	0057e663          	bltu	a5,t0,8001738 <__divdf3+0x400>
 8001730:	18579a63          	bne	a5,t0,80018c4 <__divdf3+0x58c>
 8001734:	00a5fd63          	bgeu	a1,a0,800174e <__divdf3+0x416>
 8001738:	ffe68713          	addi	a4,a3,-2
 800173c:	00159693          	slli	a3,a1,0x1
 8001740:	00b6b5b3          	sltu	a1,a3,a1
 8001744:	962e                	add	a2,a2,a1
 8001746:	97b2                	add	a5,a5,a2
 8001748:	85b6                	mv	a1,a3
 800174a:	00579463          	bne	a5,t0,8001752 <__divdf3+0x41a>
 800174e:	00b50463          	beq	a0,a1,8001756 <__divdf3+0x41e>
 8001752:	00176713          	ori	a4,a4,1
 8001756:	4792                	lw	a5,4(sp)
 8001758:	3ff78793          	addi	a5,a5,1023 # 8003ff <__min_heap_size+0x7ffbff>
 800175c:	0af05e63          	blez	a5,8001818 <__divdf3+0x4e0>
 8001760:	00777693          	andi	a3,a4,7
 8001764:	ce81                	beqz	a3,800177c <__divdf3+0x444>
 8001766:	00f77693          	andi	a3,a4,15
 800176a:	4611                	li	a2,4
 800176c:	00c68863          	beq	a3,a2,800177c <__divdf3+0x444>
 8001770:	00470693          	addi	a3,a4,4 # ff800004 <__e_f_text+0xf77cd5dc>
 8001774:	00e6b733          	sltu	a4,a3,a4
 8001778:	93ba                	add	t2,t2,a4
 800177a:	8736                	mv	a4,a3
 800177c:	010006b7          	lui	a3,0x1000
 8001780:	00d3f6b3          	and	a3,t2,a3
 8001784:	ca89                	beqz	a3,8001796 <__divdf3+0x45e>
 8001786:	ff0007b7          	lui	a5,0xff000
 800178a:	17fd                	addi	a5,a5,-1
 800178c:	00f3f3b3          	and	t2,t2,a5
 8001790:	4792                	lw	a5,4(sp)
 8001792:	40078793          	addi	a5,a5,1024 # ff000400 <__e_f_text+0xf6fcd9d8>
 8001796:	7fe00693          	li	a3,2046
 800179a:	06f6c163          	blt	a3,a5,80017fc <__divdf3+0x4c4>
 800179e:	01d39693          	slli	a3,t2,0x1d
 80017a2:	830d                	srli	a4,a4,0x3
 80017a4:	8f55                	or	a4,a4,a3
 80017a6:	0033d393          	srli	t2,t2,0x3
 80017aa:	7ff006b7          	lui	a3,0x7ff00
 80017ae:	07d2                	slli	a5,a5,0x14
 80017b0:	8ff5                	and	a5,a5,a3
 80017b2:	4682                	lw	a3,0(sp)
 80017b4:	03b2                	slli	t2,t2,0xc
 80017b6:	5082                	lw	ra,32(sp)
 80017b8:	4472                	lw	s0,28(sp)
 80017ba:	00c3d393          	srli	t2,t2,0xc
 80017be:	01f69593          	slli	a1,a3,0x1f
 80017c2:	0077e7b3          	or	a5,a5,t2
 80017c6:	00b7e6b3          	or	a3,a5,a1
 80017ca:	44e2                	lw	s1,24(sp)
 80017cc:	853a                	mv	a0,a4
 80017ce:	85b6                	mv	a1,a3
 80017d0:	02410113          	addi	sp,sp,36
 80017d4:	8082                	ret
 80017d6:	4692                	lw	a3,4(sp)
 80017d8:	4501                	li	a0,0
 80017da:	16fd                	addi	a3,a3,-1
 80017dc:	c236                	sw	a3,4(sp)
 80017de:	b3b9                	j	800152c <__divdf3+0x1f4>
 80017e0:	4722                	lw	a4,8(sp)
 80017e2:	83a2                	mv	t2,s0
 80017e4:	869a                	mv	a3,t1
 80017e6:	c03a                	sw	a4,0(sp)
 80017e8:	873e                	mv	a4,a5
 80017ea:	478d                	li	a5,3
 80017ec:	0af68e63          	beq	a3,a5,80018a8 <__divdf3+0x570>
 80017f0:	4785                	li	a5,1
 80017f2:	0cf68263          	beq	a3,a5,80018b6 <__divdf3+0x57e>
 80017f6:	4789                	li	a5,2
 80017f8:	f4f69fe3          	bne	a3,a5,8001756 <__divdf3+0x41e>
 80017fc:	4381                	li	t2,0
 80017fe:	4701                	li	a4,0
 8001800:	7ff00793          	li	a5,2047
 8001804:	b75d                	j	80017aa <__divdf3+0x472>
 8001806:	47b2                	lw	a5,12(sp)
 8001808:	c03e                	sw	a5,0(sp)
 800180a:	b7c5                	j	80017ea <__divdf3+0x4b2>
 800180c:	000803b7          	lui	t2,0x80
 8001810:	4701                	li	a4,0
 8001812:	c002                	sw	zero,0(sp)
 8001814:	468d                	li	a3,3
 8001816:	bfd1                	j	80017ea <__divdf3+0x4b2>
 8001818:	4685                	li	a3,1
 800181a:	8e9d                	sub	a3,a3,a5
 800181c:	03800613          	li	a2,56
 8001820:	08d64b63          	blt	a2,a3,80018b6 <__divdf3+0x57e>
 8001824:	467d                	li	a2,31
 8001826:	04d64c63          	blt	a2,a3,800187e <__divdf3+0x546>
 800182a:	4792                	lw	a5,4(sp)
 800182c:	00d75633          	srl	a2,a4,a3
 8001830:	41e78593          	addi	a1,a5,1054
 8001834:	00b397b3          	sll	a5,t2,a1
 8001838:	00b71733          	sll	a4,a4,a1
 800183c:	8fd1                	or	a5,a5,a2
 800183e:	00e03733          	snez	a4,a4
 8001842:	8f5d                	or	a4,a4,a5
 8001844:	00d3d3b3          	srl	t2,t2,a3
 8001848:	00777793          	andi	a5,a4,7
 800184c:	cf81                	beqz	a5,8001864 <__divdf3+0x52c>
 800184e:	00f77793          	andi	a5,a4,15
 8001852:	4691                	li	a3,4
 8001854:	00d78863          	beq	a5,a3,8001864 <__divdf3+0x52c>
 8001858:	00470693          	addi	a3,a4,4
 800185c:	00e6b733          	sltu	a4,a3,a4
 8001860:	93ba                	add	t2,t2,a4
 8001862:	8736                	mv	a4,a3
 8001864:	008007b7          	lui	a5,0x800
 8001868:	00f3f7b3          	and	a5,t2,a5
 800186c:	eba1                	bnez	a5,80018bc <__divdf3+0x584>
 800186e:	01d39793          	slli	a5,t2,0x1d
 8001872:	830d                	srli	a4,a4,0x3
 8001874:	8f5d                	or	a4,a4,a5
 8001876:	0033d393          	srli	t2,t2,0x3
 800187a:	4781                	li	a5,0
 800187c:	b73d                	j	80017aa <__divdf3+0x472>
 800187e:	5605                	li	a2,-31
 8001880:	40f607b3          	sub	a5,a2,a5
 8001884:	02000613          	li	a2,32
 8001888:	00f3d7b3          	srl	a5,t2,a5
 800188c:	4581                	li	a1,0
 800188e:	00c68763          	beq	a3,a2,800189c <__divdf3+0x564>
 8001892:	4692                	lw	a3,4(sp)
 8001894:	43e68593          	addi	a1,a3,1086 # 7ff0043e <__e_f_text+0x77ecda16>
 8001898:	00b395b3          	sll	a1,t2,a1
 800189c:	8f4d                	or	a4,a4,a1
 800189e:	00e03733          	snez	a4,a4
 80018a2:	8f5d                	or	a4,a4,a5
 80018a4:	4381                	li	t2,0
 80018a6:	b74d                	j	8001848 <__divdf3+0x510>
 80018a8:	000803b7          	lui	t2,0x80
 80018ac:	4701                	li	a4,0
 80018ae:	7ff00793          	li	a5,2047
 80018b2:	c002                	sw	zero,0(sp)
 80018b4:	bddd                	j	80017aa <__divdf3+0x472>
 80018b6:	4381                	li	t2,0
 80018b8:	4701                	li	a4,0
 80018ba:	b7c1                	j	800187a <__divdf3+0x542>
 80018bc:	4381                	li	t2,0
 80018be:	4701                	li	a4,0
 80018c0:	4785                	li	a5,1
 80018c2:	b5e5                	j	80017aa <__divdf3+0x472>
 80018c4:	86ba                	mv	a3,a4
 80018c6:	8736                	mv	a4,a3
 80018c8:	b569                	j	8001752 <__divdf3+0x41a>

080018ca <__eqdf2>:
 80018ca:	001007b7          	lui	a5,0x100
 80018ce:	17fd                	addi	a5,a5,-1
 80018d0:	1151                	addi	sp,sp,-12
 80018d2:	00b7f2b3          	and	t0,a5,a1
 80018d6:	0145d713          	srli	a4,a1,0x14
 80018da:	81fd                	srli	a1,a1,0x1f
 80018dc:	c422                	sw	s0,8(sp)
 80018de:	c226                	sw	s1,4(sp)
 80018e0:	832a                	mv	t1,a0
 80018e2:	842a                	mv	s0,a0
 80018e4:	c02e                	sw	a1,0(sp)
 80018e6:	7ff77713          	andi	a4,a4,2047
 80018ea:	0146d593          	srli	a1,a3,0x14
 80018ee:	7ff00513          	li	a0,2047
 80018f2:	8ff5                	and	a5,a5,a3
 80018f4:	84b2                	mv	s1,a2
 80018f6:	7ff5f593          	andi	a1,a1,2047
 80018fa:	82fd                	srli	a3,a3,0x1f
 80018fc:	00a71a63          	bne	a4,a0,8001910 <__eqdf2+0x46>
 8001900:	0062e3b3          	or	t2,t0,t1
 8001904:	4505                	li	a0,1
 8001906:	02039a63          	bnez	t2,800193a <__eqdf2+0x70>
 800190a:	02e59863          	bne	a1,a4,800193a <__eqdf2+0x70>
 800190e:	a019                	j	8001914 <__eqdf2+0x4a>
 8001910:	00a59563          	bne	a1,a0,800191a <__eqdf2+0x50>
 8001914:	8e5d                	or	a2,a2,a5
 8001916:	4505                	li	a0,1
 8001918:	e20d                	bnez	a2,800193a <__eqdf2+0x70>
 800191a:	4505                	li	a0,1
 800191c:	00b71f63          	bne	a4,a1,800193a <__eqdf2+0x70>
 8001920:	00f29d63          	bne	t0,a5,800193a <__eqdf2+0x70>
 8001924:	00941b63          	bne	s0,s1,800193a <__eqdf2+0x70>
 8001928:	4782                	lw	a5,0(sp)
 800192a:	00d78c63          	beq	a5,a3,8001942 <__eqdf2+0x78>
 800192e:	00071663          	bnez	a4,800193a <__eqdf2+0x70>
 8001932:	0062e533          	or	a0,t0,t1
 8001936:	00a03533          	snez	a0,a0
 800193a:	4422                	lw	s0,8(sp)
 800193c:	4492                	lw	s1,4(sp)
 800193e:	0131                	addi	sp,sp,12
 8001940:	8082                	ret
 8001942:	4501                	li	a0,0
 8001944:	bfdd                	j	800193a <__eqdf2+0x70>

08001946 <__gedf2>:
 8001946:	00100737          	lui	a4,0x100
 800194a:	1161                	addi	sp,sp,-8
 800194c:	177d                	addi	a4,a4,-1
 800194e:	0145d313          	srli	t1,a1,0x14
 8001952:	00b772b3          	and	t0,a4,a1
 8001956:	c222                	sw	s0,4(sp)
 8001958:	c026                	sw	s1,0(sp)
 800195a:	87aa                	mv	a5,a0
 800195c:	83aa                	mv	t2,a0
 800195e:	7ff37313          	andi	t1,t1,2047
 8001962:	01f5d513          	srli	a0,a1,0x1f
 8001966:	7ff00493          	li	s1,2047
 800196a:	0146d593          	srli	a1,a3,0x14
 800196e:	8f75                	and	a4,a4,a3
 8001970:	8432                	mv	s0,a2
 8001972:	7ff5f593          	andi	a1,a1,2047
 8001976:	82fd                	srli	a3,a3,0x1f
 8001978:	00931763          	bne	t1,s1,8001986 <__gedf2+0x40>
 800197c:	00f2e4b3          	or	s1,t0,a5
 8001980:	c8a5                	beqz	s1,80019f0 <__gedf2+0xaa>
 8001982:	5579                	li	a0,-2
 8001984:	a825                	j	80019bc <__gedf2+0x76>
 8001986:	00959563          	bne	a1,s1,8001990 <__gedf2+0x4a>
 800198a:	00c764b3          	or	s1,a4,a2
 800198e:	f8f5                	bnez	s1,8001982 <__gedf2+0x3c>
 8001990:	06031263          	bnez	t1,80019f4 <__gedf2+0xae>
 8001994:	00f2e7b3          	or	a5,t0,a5
 8001998:	0017b793          	seqz	a5,a5
 800199c:	e199                	bnez	a1,80019a2 <__gedf2+0x5c>
 800199e:	8e59                	or	a2,a2,a4
 80019a0:	c239                	beqz	a2,80019e6 <__gedf2+0xa0>
 80019a2:	00079a63          	bnez	a5,80019b6 <__gedf2+0x70>
 80019a6:	00d51463          	bne	a0,a3,80019ae <__gedf2+0x68>
 80019aa:	0065dd63          	bge	a1,t1,80019c4 <__gedf2+0x7e>
 80019ae:	02050a63          	beqz	a0,80019e2 <__gedf2+0x9c>
 80019b2:	557d                	li	a0,-1
 80019b4:	a021                	j	80019bc <__gedf2+0x76>
 80019b6:	557d                	li	a0,-1
 80019b8:	c291                	beqz	a3,80019bc <__gedf2+0x76>
 80019ba:	8536                	mv	a0,a3
 80019bc:	4412                	lw	s0,4(sp)
 80019be:	4482                	lw	s1,0(sp)
 80019c0:	0121                	addi	sp,sp,8
 80019c2:	8082                	ret
 80019c4:	00b35563          	bge	t1,a1,80019ce <__gedf2+0x88>
 80019c8:	fe051ae3          	bnez	a0,80019bc <__gedf2+0x76>
 80019cc:	b7dd                	j	80019b2 <__gedf2+0x6c>
 80019ce:	fe5760e3          	bltu	a4,t0,80019ae <__gedf2+0x68>
 80019d2:	00e29c63          	bne	t0,a4,80019ea <__gedf2+0xa4>
 80019d6:	fc746ce3          	bltu	s0,t2,80019ae <__gedf2+0x68>
 80019da:	fe83e7e3          	bltu	t2,s0,80019c8 <__gedf2+0x82>
 80019de:	4501                	li	a0,0
 80019e0:	bff1                	j	80019bc <__gedf2+0x76>
 80019e2:	4505                	li	a0,1
 80019e4:	bfe1                	j	80019bc <__gedf2+0x76>
 80019e6:	ffe5                	bnez	a5,80019de <__gedf2+0x98>
 80019e8:	b7d9                	j	80019ae <__gedf2+0x68>
 80019ea:	fce2efe3          	bltu	t0,a4,80019c8 <__gedf2+0x82>
 80019ee:	bfc5                	j	80019de <__gedf2+0x98>
 80019f0:	f8658de3          	beq	a1,t1,800198a <__gedf2+0x44>
 80019f4:	fa0599e3          	bnez	a1,80019a6 <__gedf2+0x60>
 80019f8:	4781                	li	a5,0
 80019fa:	b755                	j	800199e <__gedf2+0x58>

080019fc <__ledf2>:
 80019fc:	00100737          	lui	a4,0x100
 8001a00:	1161                	addi	sp,sp,-8
 8001a02:	177d                	addi	a4,a4,-1
 8001a04:	0145d313          	srli	t1,a1,0x14
 8001a08:	00b772b3          	and	t0,a4,a1
 8001a0c:	c222                	sw	s0,4(sp)
 8001a0e:	c026                	sw	s1,0(sp)
 8001a10:	87aa                	mv	a5,a0
 8001a12:	83aa                	mv	t2,a0
 8001a14:	7ff37313          	andi	t1,t1,2047
 8001a18:	01f5d513          	srli	a0,a1,0x1f
 8001a1c:	7ff00493          	li	s1,2047
 8001a20:	0146d593          	srli	a1,a3,0x14
 8001a24:	8f75                	and	a4,a4,a3
 8001a26:	8432                	mv	s0,a2
 8001a28:	7ff5f593          	andi	a1,a1,2047
 8001a2c:	82fd                	srli	a3,a3,0x1f
 8001a2e:	00931763          	bne	t1,s1,8001a3c <__ledf2+0x40>
 8001a32:	00f2e4b3          	or	s1,t0,a5
 8001a36:	c8a5                	beqz	s1,8001aa6 <__ledf2+0xaa>
 8001a38:	4509                	li	a0,2
 8001a3a:	a825                	j	8001a72 <__ledf2+0x76>
 8001a3c:	00959563          	bne	a1,s1,8001a46 <__ledf2+0x4a>
 8001a40:	00c764b3          	or	s1,a4,a2
 8001a44:	f8f5                	bnez	s1,8001a38 <__ledf2+0x3c>
 8001a46:	06031263          	bnez	t1,8001aaa <__ledf2+0xae>
 8001a4a:	00f2e7b3          	or	a5,t0,a5
 8001a4e:	0017b793          	seqz	a5,a5
 8001a52:	e199                	bnez	a1,8001a58 <__ledf2+0x5c>
 8001a54:	8e59                	or	a2,a2,a4
 8001a56:	c239                	beqz	a2,8001a9c <__ledf2+0xa0>
 8001a58:	00079a63          	bnez	a5,8001a6c <__ledf2+0x70>
 8001a5c:	00d51463          	bne	a0,a3,8001a64 <__ledf2+0x68>
 8001a60:	0065dd63          	bge	a1,t1,8001a7a <__ledf2+0x7e>
 8001a64:	02050a63          	beqz	a0,8001a98 <__ledf2+0x9c>
 8001a68:	557d                	li	a0,-1
 8001a6a:	a021                	j	8001a72 <__ledf2+0x76>
 8001a6c:	557d                	li	a0,-1
 8001a6e:	c291                	beqz	a3,8001a72 <__ledf2+0x76>
 8001a70:	8536                	mv	a0,a3
 8001a72:	4412                	lw	s0,4(sp)
 8001a74:	4482                	lw	s1,0(sp)
 8001a76:	0121                	addi	sp,sp,8
 8001a78:	8082                	ret
 8001a7a:	00b35563          	bge	t1,a1,8001a84 <__ledf2+0x88>
 8001a7e:	fe051ae3          	bnez	a0,8001a72 <__ledf2+0x76>
 8001a82:	b7dd                	j	8001a68 <__ledf2+0x6c>
 8001a84:	fe5760e3          	bltu	a4,t0,8001a64 <__ledf2+0x68>
 8001a88:	00e29c63          	bne	t0,a4,8001aa0 <__ledf2+0xa4>
 8001a8c:	fc746ce3          	bltu	s0,t2,8001a64 <__ledf2+0x68>
 8001a90:	fe83e7e3          	bltu	t2,s0,8001a7e <__ledf2+0x82>
 8001a94:	4501                	li	a0,0
 8001a96:	bff1                	j	8001a72 <__ledf2+0x76>
 8001a98:	4505                	li	a0,1
 8001a9a:	bfe1                	j	8001a72 <__ledf2+0x76>
 8001a9c:	ffe5                	bnez	a5,8001a94 <__ledf2+0x98>
 8001a9e:	b7d9                	j	8001a64 <__ledf2+0x68>
 8001aa0:	fce2efe3          	bltu	t0,a4,8001a7e <__ledf2+0x82>
 8001aa4:	bfc5                	j	8001a94 <__ledf2+0x98>
 8001aa6:	f8658de3          	beq	a1,t1,8001a40 <__ledf2+0x44>
 8001aaa:	fa0599e3          	bnez	a1,8001a5c <__ledf2+0x60>
 8001aae:	4781                	li	a5,0
 8001ab0:	b755                	j	8001a54 <__ledf2+0x58>

08001ab2 <__muldf3>:
 8001ab2:	fd810113          	addi	sp,sp,-40
 8001ab6:	0145d293          	srli	t0,a1,0x14
 8001aba:	01f5d793          	srli	a5,a1,0x1f
 8001abe:	d022                	sw	s0,32(sp)
 8001ac0:	00c59313          	slli	t1,a1,0xc
 8001ac4:	d206                	sw	ra,36(sp)
 8001ac6:	ce26                	sw	s1,28(sp)
 8001ac8:	7ff2f293          	andi	t0,t0,2047
 8001acc:	c43e                	sw	a5,8(sp)
 8001ace:	842a                	mv	s0,a0
 8001ad0:	00c35313          	srli	t1,t1,0xc
 8001ad4:	08028863          	beqz	t0,8001b64 <__muldf3+0xb2>
 8001ad8:	7ff00793          	li	a5,2047
 8001adc:	0ef28763          	beq	t0,a5,8001bca <__muldf3+0x118>
 8001ae0:	01d55793          	srli	a5,a0,0x1d
 8001ae4:	030e                	slli	t1,t1,0x3
 8001ae6:	0067e333          	or	t1,a5,t1
 8001aea:	008007b7          	lui	a5,0x800
 8001aee:	00f36333          	or	t1,t1,a5
 8001af2:	00351593          	slli	a1,a0,0x3
 8001af6:	c0128293          	addi	t0,t0,-1023
 8001afa:	4481                	li	s1,0
 8001afc:	0146d513          	srli	a0,a3,0x14
 8001b00:	01f6d793          	srli	a5,a3,0x1f
 8001b04:	00c69413          	slli	s0,a3,0xc
 8001b08:	7ff57513          	andi	a0,a0,2047
 8001b0c:	c63e                	sw	a5,12(sp)
 8001b0e:	8031                	srli	s0,s0,0xc
 8001b10:	cd71                	beqz	a0,8001bec <__muldf3+0x13a>
 8001b12:	7ff00793          	li	a5,2047
 8001b16:	14f50463          	beq	a0,a5,8001c5e <__muldf3+0x1ac>
 8001b1a:	01d65793          	srli	a5,a2,0x1d
 8001b1e:	040e                	slli	s0,s0,0x3
 8001b20:	8c5d                	or	s0,s0,a5
 8001b22:	008007b7          	lui	a5,0x800
 8001b26:	8c5d                	or	s0,s0,a5
 8001b28:	00361713          	slli	a4,a2,0x3
 8001b2c:	c0150513          	addi	a0,a0,-1023
 8001b30:	4781                	li	a5,0
 8001b32:	4632                	lw	a2,12(sp)
 8001b34:	46a2                	lw	a3,8(sp)
 8001b36:	8eb1                	xor	a3,a3,a2
 8001b38:	c036                	sw	a3,0(sp)
 8001b3a:	00a286b3          	add	a3,t0,a0
 8001b3e:	c836                	sw	a3,16(sp)
 8001b40:	0685                	addi	a3,a3,1
 8001b42:	c236                	sw	a3,4(sp)
 8001b44:	00249693          	slli	a3,s1,0x2
 8001b48:	8edd                	or	a3,a3,a5
 8001b4a:	16fd                	addi	a3,a3,-1
 8001b4c:	4639                	li	a2,14
 8001b4e:	12d66963          	bltu	a2,a3,8001c80 <__muldf3+0x1ce>
 8001b52:	0002c617          	auipc	a2,0x2c
 8001b56:	df260613          	addi	a2,a2,-526 # 802d944 <__srodata+0x124>
 8001b5a:	068a                	slli	a3,a3,0x2
 8001b5c:	96b2                	add	a3,a3,a2
 8001b5e:	4294                	lw	a3,0(a3)
 8001b60:	96b2                	add	a3,a3,a2
 8001b62:	8682                	jr	a3
 8001b64:	00a365b3          	or	a1,t1,a0
 8001b68:	c9ad                	beqz	a1,8001bda <__muldf3+0x128>
 8001b6a:	c636                	sw	a3,12(sp)
 8001b6c:	c232                	sw	a2,4(sp)
 8001b6e:	02030f63          	beqz	t1,8001bac <__muldf3+0xfa>
 8001b72:	851a                	mv	a0,t1
 8001b74:	c01a                	sw	t1,0(sp)
 8001b76:	56b000ef          	jal	ra,80028e0 <__clzsi2>
 8001b7a:	4302                	lw	t1,0(sp)
 8001b7c:	4612                	lw	a2,4(sp)
 8001b7e:	46b2                	lw	a3,12(sp)
 8001b80:	ff550713          	addi	a4,a0,-11
 8001b84:	47f1                	li	a5,28
 8001b86:	02e7cc63          	blt	a5,a4,8001bbe <__muldf3+0x10c>
 8001b8a:	47f5                	li	a5,29
 8001b8c:	ff850593          	addi	a1,a0,-8
 8001b90:	8f99                	sub	a5,a5,a4
 8001b92:	00b31333          	sll	t1,t1,a1
 8001b96:	00f457b3          	srl	a5,s0,a5
 8001b9a:	0067e333          	or	t1,a5,t1
 8001b9e:	00b415b3          	sll	a1,s0,a1
 8001ba2:	c0d00293          	li	t0,-1011
 8001ba6:	40a282b3          	sub	t0,t0,a0
 8001baa:	bf81                	j	8001afa <__muldf3+0x48>
 8001bac:	c01a                	sw	t1,0(sp)
 8001bae:	533000ef          	jal	ra,80028e0 <__clzsi2>
 8001bb2:	46b2                	lw	a3,12(sp)
 8001bb4:	4612                	lw	a2,4(sp)
 8001bb6:	4302                	lw	t1,0(sp)
 8001bb8:	02050513          	addi	a0,a0,32
 8001bbc:	b7d1                	j	8001b80 <__muldf3+0xce>
 8001bbe:	fd850313          	addi	t1,a0,-40
 8001bc2:	00641333          	sll	t1,s0,t1
 8001bc6:	4581                	li	a1,0
 8001bc8:	bfe9                	j	8001ba2 <__muldf3+0xf0>
 8001bca:	00a365b3          	or	a1,t1,a0
 8001bce:	c991                	beqz	a1,8001be2 <__muldf3+0x130>
 8001bd0:	85aa                	mv	a1,a0
 8001bd2:	7ff00293          	li	t0,2047
 8001bd6:	448d                	li	s1,3
 8001bd8:	b715                	j	8001afc <__muldf3+0x4a>
 8001bda:	4301                	li	t1,0
 8001bdc:	4281                	li	t0,0
 8001bde:	4485                	li	s1,1
 8001be0:	bf31                	j	8001afc <__muldf3+0x4a>
 8001be2:	4301                	li	t1,0
 8001be4:	7ff00293          	li	t0,2047
 8001be8:	4489                	li	s1,2
 8001bea:	bf09                	j	8001afc <__muldf3+0x4a>
 8001bec:	00c46733          	or	a4,s0,a2
 8001bf0:	cf3d                	beqz	a4,8001c6e <__muldf3+0x1bc>
 8001bf2:	04040263          	beqz	s0,8001c36 <__muldf3+0x184>
 8001bf6:	8522                	mv	a0,s0
 8001bf8:	ca32                	sw	a2,20(sp)
 8001bfa:	c81a                	sw	t1,16(sp)
 8001bfc:	c22e                	sw	a1,4(sp)
 8001bfe:	c016                	sw	t0,0(sp)
 8001c00:	4e1000ef          	jal	ra,80028e0 <__clzsi2>
 8001c04:	4282                	lw	t0,0(sp)
 8001c06:	4592                	lw	a1,4(sp)
 8001c08:	4342                	lw	t1,16(sp)
 8001c0a:	4652                	lw	a2,20(sp)
 8001c0c:	ff550693          	addi	a3,a0,-11
 8001c10:	47f1                	li	a5,28
 8001c12:	04d7c063          	blt	a5,a3,8001c52 <__muldf3+0x1a0>
 8001c16:	47f5                	li	a5,29
 8001c18:	ff850713          	addi	a4,a0,-8
 8001c1c:	8f95                	sub	a5,a5,a3
 8001c1e:	00e41433          	sll	s0,s0,a4
 8001c22:	00f657b3          	srl	a5,a2,a5
 8001c26:	8c5d                	or	s0,s0,a5
 8001c28:	00e61733          	sll	a4,a2,a4
 8001c2c:	c0d00793          	li	a5,-1011
 8001c30:	40a78533          	sub	a0,a5,a0
 8001c34:	bdf5                	j	8001b30 <__muldf3+0x7e>
 8001c36:	8532                	mv	a0,a2
 8001c38:	ca1a                	sw	t1,20(sp)
 8001c3a:	c82e                	sw	a1,16(sp)
 8001c3c:	c216                	sw	t0,4(sp)
 8001c3e:	c032                	sw	a2,0(sp)
 8001c40:	4a1000ef          	jal	ra,80028e0 <__clzsi2>
 8001c44:	4352                	lw	t1,20(sp)
 8001c46:	45c2                	lw	a1,16(sp)
 8001c48:	4292                	lw	t0,4(sp)
 8001c4a:	4602                	lw	a2,0(sp)
 8001c4c:	02050513          	addi	a0,a0,32
 8001c50:	bf75                	j	8001c0c <__muldf3+0x15a>
 8001c52:	fd850413          	addi	s0,a0,-40
 8001c56:	00861433          	sll	s0,a2,s0
 8001c5a:	4701                	li	a4,0
 8001c5c:	bfc1                	j	8001c2c <__muldf3+0x17a>
 8001c5e:	00c46733          	or	a4,s0,a2
 8001c62:	cb11                	beqz	a4,8001c76 <__muldf3+0x1c4>
 8001c64:	8732                	mv	a4,a2
 8001c66:	7ff00513          	li	a0,2047
 8001c6a:	478d                	li	a5,3
 8001c6c:	b5d9                	j	8001b32 <__muldf3+0x80>
 8001c6e:	4401                	li	s0,0
 8001c70:	4501                	li	a0,0
 8001c72:	4785                	li	a5,1
 8001c74:	bd7d                	j	8001b32 <__muldf3+0x80>
 8001c76:	4401                	li	s0,0
 8001c78:	7ff00513          	li	a0,2047
 8001c7c:	4789                	li	a5,2
 8001c7e:	bd55                	j	8001b32 <__muldf3+0x80>
 8001c80:	0105d613          	srli	a2,a1,0x10
 8001c84:	01075493          	srli	s1,a4,0x10
 8001c88:	029606b3          	mul	a3,a2,s1
 8001c8c:	67c1                	lui	a5,0x10
 8001c8e:	17fd                	addi	a5,a5,-1
 8001c90:	8dfd                	and	a1,a1,a5
 8001c92:	8f7d                	and	a4,a4,a5
 8001c94:	02e603b3          	mul	t2,a2,a4
 8001c98:	c436                	sw	a3,8(sp)
 8001c9a:	02b486b3          	mul	a3,s1,a1
 8001c9e:	02e58533          	mul	a0,a1,a4
 8001ca2:	969e                	add	a3,a3,t2
 8001ca4:	82b6                	mv	t0,a3
 8001ca6:	01055693          	srli	a3,a0,0x10
 8001caa:	9696                	add	a3,a3,t0
 8001cac:	0076f763          	bgeu	a3,t2,8001cba <__muldf3+0x208>
 8001cb0:	029603b3          	mul	t2,a2,s1
 8001cb4:	62c1                	lui	t0,0x10
 8001cb6:	929e                	add	t0,t0,t2
 8001cb8:	c416                	sw	t0,8(sp)
 8001cba:	0106d293          	srli	t0,a3,0x10
 8001cbe:	8efd                	and	a3,a3,a5
 8001cc0:	8d7d                	and	a0,a0,a5
 8001cc2:	06c2                	slli	a3,a3,0x10
 8001cc4:	96aa                	add	a3,a3,a0
 8001cc6:	8fe1                	and	a5,a5,s0
 8001cc8:	01045513          	srli	a0,s0,0x10
 8001ccc:	02f603b3          	mul	t2,a2,a5
 8001cd0:	ca36                	sw	a3,20(sp)
 8001cd2:	02f586b3          	mul	a3,a1,a5
 8001cd6:	02b505b3          	mul	a1,a0,a1
 8001cda:	0106d413          	srli	s0,a3,0x10
 8001cde:	959e                	add	a1,a1,t2
 8001ce0:	95a2                	add	a1,a1,s0
 8001ce2:	02a60633          	mul	a2,a2,a0
 8001ce6:	0075f463          	bgeu	a1,t2,8001cee <__muldf3+0x23c>
 8001cea:	63c1                	lui	t2,0x10
 8001cec:	961e                	add	a2,a2,t2
 8001cee:	0105d393          	srli	t2,a1,0x10
 8001cf2:	961e                	add	a2,a2,t2
 8001cf4:	c632                	sw	a2,12(sp)
 8001cf6:	6641                	lui	a2,0x10
 8001cf8:	fff60393          	addi	t2,a2,-1 # ffff <__min_heap_size+0xf7ff>
 8001cfc:	0075f5b3          	and	a1,a1,t2
 8001d00:	0076f6b3          	and	a3,a3,t2
 8001d04:	05c2                	slli	a1,a1,0x10
 8001d06:	95b6                	add	a1,a1,a3
 8001d08:	00b286b3          	add	a3,t0,a1
 8001d0c:	01035293          	srli	t0,t1,0x10
 8001d10:	00737333          	and	t1,t1,t2
 8001d14:	026703b3          	mul	t2,a4,t1
 8001d18:	cc36                	sw	a3,24(sp)
 8001d1a:	02e28733          	mul	a4,t0,a4
 8001d1e:	026486b3          	mul	a3,s1,t1
 8001d22:	02548433          	mul	s0,s1,t0
 8001d26:	96ba                	add	a3,a3,a4
 8001d28:	0103d493          	srli	s1,t2,0x10
 8001d2c:	96a6                	add	a3,a3,s1
 8001d2e:	00e6f363          	bgeu	a3,a4,8001d34 <__muldf3+0x282>
 8001d32:	9432                	add	s0,s0,a2
 8001d34:	0106d613          	srli	a2,a3,0x10
 8001d38:	6741                	lui	a4,0x10
 8001d3a:	9622                	add	a2,a2,s0
 8001d3c:	fff70413          	addi	s0,a4,-1 # ffff <__min_heap_size+0xf7ff>
 8001d40:	026784b3          	mul	s1,a5,t1
 8001d44:	8ee1                	and	a3,a3,s0
 8001d46:	06c2                	slli	a3,a3,0x10
 8001d48:	0083f3b3          	and	t2,t2,s0
 8001d4c:	969e                	add	a3,a3,t2
 8001d4e:	02f287b3          	mul	a5,t0,a5
 8001d52:	02650333          	mul	t1,a0,t1
 8001d56:	025502b3          	mul	t0,a0,t0
 8001d5a:	933e                	add	t1,t1,a5
 8001d5c:	0104d513          	srli	a0,s1,0x10
 8001d60:	932a                	add	t1,t1,a0
 8001d62:	00f37363          	bgeu	t1,a5,8001d68 <__muldf3+0x2b6>
 8001d66:	92ba                	add	t0,t0,a4
 8001d68:	4762                	lw	a4,24(sp)
 8001d6a:	47a2                	lw	a5,8(sp)
 8001d6c:	6541                	lui	a0,0x10
 8001d6e:	157d                	addi	a0,a0,-1
 8001d70:	97ba                	add	a5,a5,a4
 8001d72:	00a37733          	and	a4,t1,a0
 8001d76:	0742                	slli	a4,a4,0x10
 8001d78:	8ce9                	and	s1,s1,a0
 8001d7a:	94ba                	add	s1,s1,a4
 8001d7c:	4732                	lw	a4,12(sp)
 8001d7e:	00b7b5b3          	sltu	a1,a5,a1
 8001d82:	97b6                	add	a5,a5,a3
 8001d84:	94ba                	add	s1,s1,a4
 8001d86:	00b48533          	add	a0,s1,a1
 8001d8a:	00d7b6b3          	sltu	a3,a5,a3
 8001d8e:	00c50433          	add	s0,a0,a2
 8001d92:	00d403b3          	add	t2,s0,a3
 8001d96:	00e4b4b3          	sltu	s1,s1,a4
 8001d9a:	00b535b3          	sltu	a1,a0,a1
 8001d9e:	00d3b6b3          	sltu	a3,t2,a3
 8001da2:	8dc5                	or	a1,a1,s1
 8001da4:	01035313          	srli	t1,t1,0x10
 8001da8:	00c43433          	sltu	s0,s0,a2
 8001dac:	8c55                	or	s0,s0,a3
 8001dae:	959a                	add	a1,a1,t1
 8001db0:	942e                	add	s0,s0,a1
 8001db2:	46d2                	lw	a3,20(sp)
 8001db4:	92a2                	add	t0,t0,s0
 8001db6:	0173d713          	srli	a4,t2,0x17
 8001dba:	00929413          	slli	s0,t0,0x9
 8001dbe:	8c59                	or	s0,s0,a4
 8001dc0:	00979713          	slli	a4,a5,0x9
 8001dc4:	8f55                	or	a4,a4,a3
 8001dc6:	83dd                	srli	a5,a5,0x17
 8001dc8:	00e03733          	snez	a4,a4
 8001dcc:	8f5d                	or	a4,a4,a5
 8001dce:	010007b7          	lui	a5,0x1000
 8001dd2:	03a6                	slli	t2,t2,0x9
 8001dd4:	8fe1                	and	a5,a5,s0
 8001dd6:	00776733          	or	a4,a4,t2
 8001dda:	c7dd                	beqz	a5,8001e88 <__muldf3+0x3d6>
 8001ddc:	00175793          	srli	a5,a4,0x1
 8001de0:	8b05                	andi	a4,a4,1
 8001de2:	8f5d                	or	a4,a4,a5
 8001de4:	01f41793          	slli	a5,s0,0x1f
 8001de8:	8f5d                	or	a4,a4,a5
 8001dea:	8005                	srli	s0,s0,0x1
 8001dec:	4792                	lw	a5,4(sp)
 8001dee:	3ff78793          	addi	a5,a5,1023 # 10003ff <__min_heap_size+0xfffbff>
 8001df2:	08f05e63          	blez	a5,8001e8e <__muldf3+0x3dc>
 8001df6:	00777693          	andi	a3,a4,7
 8001dfa:	ce81                	beqz	a3,8001e12 <__muldf3+0x360>
 8001dfc:	00f77693          	andi	a3,a4,15
 8001e00:	4611                	li	a2,4
 8001e02:	00c68863          	beq	a3,a2,8001e12 <__muldf3+0x360>
 8001e06:	00470693          	addi	a3,a4,4
 8001e0a:	00e6b733          	sltu	a4,a3,a4
 8001e0e:	943a                	add	s0,s0,a4
 8001e10:	8736                	mv	a4,a3
 8001e12:	010006b7          	lui	a3,0x1000
 8001e16:	8ee1                	and	a3,a3,s0
 8001e18:	ca81                	beqz	a3,8001e28 <__muldf3+0x376>
 8001e1a:	ff0007b7          	lui	a5,0xff000
 8001e1e:	17fd                	addi	a5,a5,-1
 8001e20:	8c7d                	and	s0,s0,a5
 8001e22:	4792                	lw	a5,4(sp)
 8001e24:	40078793          	addi	a5,a5,1024 # ff000400 <__e_f_text+0xf6fcd9d8>
 8001e28:	7fe00693          	li	a3,2046
 8001e2c:	0ef6ce63          	blt	a3,a5,8001f28 <__muldf3+0x476>
 8001e30:	01d41693          	slli	a3,s0,0x1d
 8001e34:	830d                	srli	a4,a4,0x3
 8001e36:	8f55                	or	a4,a4,a3
 8001e38:	800d                	srli	s0,s0,0x3
 8001e3a:	7ff006b7          	lui	a3,0x7ff00
 8001e3e:	07d2                	slli	a5,a5,0x14
 8001e40:	0432                	slli	s0,s0,0xc
 8001e42:	8ff5                	and	a5,a5,a3
 8001e44:	8031                	srli	s0,s0,0xc
 8001e46:	8c5d                	or	s0,s0,a5
 8001e48:	4782                	lw	a5,0(sp)
 8001e4a:	5092                	lw	ra,36(sp)
 8001e4c:	44f2                	lw	s1,28(sp)
 8001e4e:	07fe                	slli	a5,a5,0x1f
 8001e50:	00f466b3          	or	a3,s0,a5
 8001e54:	5402                	lw	s0,32(sp)
 8001e56:	853a                	mv	a0,a4
 8001e58:	85b6                	mv	a1,a3
 8001e5a:	02810113          	addi	sp,sp,40
 8001e5e:	8082                	ret
 8001e60:	47a2                	lw	a5,8(sp)
 8001e62:	c03e                	sw	a5,0(sp)
 8001e64:	841a                	mv	s0,t1
 8001e66:	872e                	mv	a4,a1
 8001e68:	87a6                	mv	a5,s1
 8001e6a:	4689                	li	a3,2
 8001e6c:	0ad78e63          	beq	a5,a3,8001f28 <__muldf3+0x476>
 8001e70:	468d                	li	a3,3
 8001e72:	0ad78463          	beq	a5,a3,8001f1a <__muldf3+0x468>
 8001e76:	4685                	li	a3,1
 8001e78:	f6d79ae3          	bne	a5,a3,8001dec <__muldf3+0x33a>
 8001e7c:	4401                	li	s0,0
 8001e7e:	4701                	li	a4,0
 8001e80:	a0b5                	j	8001eec <__muldf3+0x43a>
 8001e82:	46b2                	lw	a3,12(sp)
 8001e84:	c036                	sw	a3,0(sp)
 8001e86:	b7d5                	j	8001e6a <__muldf3+0x3b8>
 8001e88:	47c2                	lw	a5,16(sp)
 8001e8a:	c23e                	sw	a5,4(sp)
 8001e8c:	b785                	j	8001dec <__muldf3+0x33a>
 8001e8e:	4605                	li	a2,1
 8001e90:	8e1d                	sub	a2,a2,a5
 8001e92:	03800693          	li	a3,56
 8001e96:	fec6c3e3          	blt	a3,a2,8001e7c <__muldf3+0x3ca>
 8001e9a:	46fd                	li	a3,31
 8001e9c:	04c6ca63          	blt	a3,a2,8001ef0 <__muldf3+0x43e>
 8001ea0:	4792                	lw	a5,4(sp)
 8001ea2:	00c755b3          	srl	a1,a4,a2
 8001ea6:	41e78793          	addi	a5,a5,1054
 8001eaa:	00f416b3          	sll	a3,s0,a5
 8001eae:	00f71733          	sll	a4,a4,a5
 8001eb2:	8ecd                	or	a3,a3,a1
 8001eb4:	00e03733          	snez	a4,a4
 8001eb8:	8f55                	or	a4,a4,a3
 8001eba:	00c45433          	srl	s0,s0,a2
 8001ebe:	00777793          	andi	a5,a4,7
 8001ec2:	cf81                	beqz	a5,8001eda <__muldf3+0x428>
 8001ec4:	00f77793          	andi	a5,a4,15
 8001ec8:	4691                	li	a3,4
 8001eca:	00d78863          	beq	a5,a3,8001eda <__muldf3+0x428>
 8001ece:	00470793          	addi	a5,a4,4
 8001ed2:	00e7b733          	sltu	a4,a5,a4
 8001ed6:	943a                	add	s0,s0,a4
 8001ed8:	873e                	mv	a4,a5
 8001eda:	008007b7          	lui	a5,0x800
 8001ede:	8fe1                	and	a5,a5,s0
 8001ee0:	eba9                	bnez	a5,8001f32 <__muldf3+0x480>
 8001ee2:	01d41793          	slli	a5,s0,0x1d
 8001ee6:	830d                	srli	a4,a4,0x3
 8001ee8:	8f5d                	or	a4,a4,a5
 8001eea:	800d                	srli	s0,s0,0x3
 8001eec:	4781                	li	a5,0
 8001eee:	b7b1                	j	8001e3a <__muldf3+0x388>
 8001ef0:	5685                	li	a3,-31
 8001ef2:	40f687b3          	sub	a5,a3,a5
 8001ef6:	02000593          	li	a1,32
 8001efa:	00f457b3          	srl	a5,s0,a5
 8001efe:	4681                	li	a3,0
 8001f00:	00b60763          	beq	a2,a1,8001f0e <__muldf3+0x45c>
 8001f04:	4692                	lw	a3,4(sp)
 8001f06:	43e68693          	addi	a3,a3,1086 # 7ff0043e <__e_f_text+0x77ecda16>
 8001f0a:	00d416b3          	sll	a3,s0,a3
 8001f0e:	8f55                	or	a4,a4,a3
 8001f10:	00e03733          	snez	a4,a4
 8001f14:	8f5d                	or	a4,a4,a5
 8001f16:	4401                	li	s0,0
 8001f18:	b75d                	j	8001ebe <__muldf3+0x40c>
 8001f1a:	00080437          	lui	s0,0x80
 8001f1e:	4701                	li	a4,0
 8001f20:	7ff00793          	li	a5,2047
 8001f24:	c002                	sw	zero,0(sp)
 8001f26:	bf11                	j	8001e3a <__muldf3+0x388>
 8001f28:	4401                	li	s0,0
 8001f2a:	4701                	li	a4,0
 8001f2c:	7ff00793          	li	a5,2047
 8001f30:	b729                	j	8001e3a <__muldf3+0x388>
 8001f32:	4401                	li	s0,0
 8001f34:	4701                	li	a4,0
 8001f36:	4785                	li	a5,1
 8001f38:	b709                	j	8001e3a <__muldf3+0x388>

08001f3a <__subdf3>:
 8001f3a:	00100337          	lui	t1,0x100
 8001f3e:	137d                	addi	t1,t1,-1
 8001f40:	1131                	addi	sp,sp,-20
 8001f42:	00b377b3          	and	a5,t1,a1
 8001f46:	0145d713          	srli	a4,a1,0x14
 8001f4a:	c426                	sw	s1,8(sp)
 8001f4c:	078e                	slli	a5,a5,0x3
 8001f4e:	7ff77493          	andi	s1,a4,2047
 8001f52:	01d55713          	srli	a4,a0,0x1d
 8001f56:	8fd9                	or	a5,a5,a4
 8001f58:	00d37733          	and	a4,t1,a3
 8001f5c:	c622                	sw	s0,12(sp)
 8001f5e:	0146d313          	srli	t1,a3,0x14
 8001f62:	01f5d413          	srli	s0,a1,0x1f
 8001f66:	070e                	slli	a4,a4,0x3
 8001f68:	01d65593          	srli	a1,a2,0x1d
 8001f6c:	8f4d                	or	a4,a4,a1
 8001f6e:	c806                	sw	ra,16(sp)
 8001f70:	7ff37313          	andi	t1,t1,2047
 8001f74:	7ff00593          	li	a1,2047
 8001f78:	050e                	slli	a0,a0,0x3
 8001f7a:	82fd                	srli	a3,a3,0x1f
 8001f7c:	060e                	slli	a2,a2,0x3
 8001f7e:	00b31563          	bne	t1,a1,8001f88 <__subdf3+0x4e>
 8001f82:	00c765b3          	or	a1,a4,a2
 8001f86:	e199                	bnez	a1,8001f8c <__subdf3+0x52>
 8001f88:	0016c693          	xori	a3,a3,1
 8001f8c:	406482b3          	sub	t0,s1,t1
 8001f90:	22869563          	bne	a3,s0,80021ba <__subdf3+0x280>
 8001f94:	0e505263          	blez	t0,8002078 <__subdf3+0x13e>
 8001f98:	02031863          	bnez	t1,8001fc8 <__subdf3+0x8e>
 8001f9c:	00c766b3          	or	a3,a4,a2
 8001fa0:	56068f63          	beqz	a3,800251e <__subdf3+0x5e4>
 8001fa4:	fff28593          	addi	a1,t0,-1 # ffff <__min_heap_size+0xf7ff>
 8001fa8:	e989                	bnez	a1,8001fba <__subdf3+0x80>
 8001faa:	962a                	add	a2,a2,a0
 8001fac:	00a63533          	sltu	a0,a2,a0
 8001fb0:	97ba                	add	a5,a5,a4
 8001fb2:	97aa                	add	a5,a5,a0
 8001fb4:	8532                	mv	a0,a2
 8001fb6:	4485                	li	s1,1
 8001fb8:	a8b9                	j	8002016 <__subdf3+0xdc>
 8001fba:	7ff00693          	li	a3,2047
 8001fbe:	00d29d63          	bne	t0,a3,8001fd8 <__subdf3+0x9e>
 8001fc2:	7ff00493          	li	s1,2047
 8001fc6:	aa79                	j	8002164 <__subdf3+0x22a>
 8001fc8:	7ff00693          	li	a3,2047
 8001fcc:	18d48c63          	beq	s1,a3,8002164 <__subdf3+0x22a>
 8001fd0:	008006b7          	lui	a3,0x800
 8001fd4:	8f55                	or	a4,a4,a3
 8001fd6:	8596                	mv	a1,t0
 8001fd8:	03800693          	li	a3,56
 8001fdc:	08b6ca63          	blt	a3,a1,8002070 <__subdf3+0x136>
 8001fe0:	46fd                	li	a3,31
 8001fe2:	06b6c163          	blt	a3,a1,8002044 <__subdf3+0x10a>
 8001fe6:	02000313          	li	t1,32
 8001fea:	40b30333          	sub	t1,t1,a1
 8001fee:	006716b3          	sll	a3,a4,t1
 8001ff2:	00b652b3          	srl	t0,a2,a1
 8001ff6:	00661633          	sll	a2,a2,t1
 8001ffa:	0056e6b3          	or	a3,a3,t0
 8001ffe:	00c03633          	snez	a2,a2
 8002002:	8e55                	or	a2,a2,a3
 8002004:	00b75733          	srl	a4,a4,a1
 8002008:	962a                	add	a2,a2,a0
 800200a:	00a63533          	sltu	a0,a2,a0
 800200e:	973e                	add	a4,a4,a5
 8002010:	00a707b3          	add	a5,a4,a0
 8002014:	8532                	mv	a0,a2
 8002016:	00800737          	lui	a4,0x800
 800201a:	8f7d                	and	a4,a4,a5
 800201c:	14070463          	beqz	a4,8002164 <__subdf3+0x22a>
 8002020:	0485                	addi	s1,s1,1
 8002022:	7ff00713          	li	a4,2047
 8002026:	48e48c63          	beq	s1,a4,80024be <__subdf3+0x584>
 800202a:	ff800737          	lui	a4,0xff800
 800202e:	177d                	addi	a4,a4,-1
 8002030:	8ff9                	and	a5,a5,a4
 8002032:	00155713          	srli	a4,a0,0x1
 8002036:	8905                	andi	a0,a0,1
 8002038:	8d59                	or	a0,a0,a4
 800203a:	01f79713          	slli	a4,a5,0x1f
 800203e:	8d59                	or	a0,a0,a4
 8002040:	8385                	srli	a5,a5,0x1
 8002042:	a20d                	j	8002164 <__subdf3+0x22a>
 8002044:	fe058693          	addi	a3,a1,-32
 8002048:	02000293          	li	t0,32
 800204c:	00d756b3          	srl	a3,a4,a3
 8002050:	4301                	li	t1,0
 8002052:	00558863          	beq	a1,t0,8002062 <__subdf3+0x128>
 8002056:	04000313          	li	t1,64
 800205a:	40b305b3          	sub	a1,t1,a1
 800205e:	00b71333          	sll	t1,a4,a1
 8002062:	00c36633          	or	a2,t1,a2
 8002066:	00c03633          	snez	a2,a2
 800206a:	8e55                	or	a2,a2,a3
 800206c:	4701                	li	a4,0
 800206e:	bf69                	j	8002008 <__subdf3+0xce>
 8002070:	8e59                	or	a2,a2,a4
 8002072:	00c03633          	snez	a2,a2
 8002076:	bfdd                	j	800206c <__subdf3+0x132>
 8002078:	0a028a63          	beqz	t0,800212c <__subdf3+0x1f2>
 800207c:	409305b3          	sub	a1,t1,s1
 8002080:	e48d                	bnez	s1,80020aa <__subdf3+0x170>
 8002082:	00a7e6b3          	or	a3,a5,a0
 8002086:	42068363          	beqz	a3,80024ac <__subdf3+0x572>
 800208a:	fff58693          	addi	a3,a1,-1
 800208e:	e699                	bnez	a3,800209c <__subdf3+0x162>
 8002090:	9532                	add	a0,a0,a2
 8002092:	97ba                	add	a5,a5,a4
 8002094:	00c53633          	sltu	a2,a0,a2
 8002098:	97b2                	add	a5,a5,a2
 800209a:	bf31                	j	8001fb6 <__subdf3+0x7c>
 800209c:	7ff00293          	li	t0,2047
 80020a0:	00559d63          	bne	a1,t0,80020ba <__subdf3+0x180>
 80020a4:	87ba                	mv	a5,a4
 80020a6:	8532                	mv	a0,a2
 80020a8:	bf29                	j	8001fc2 <__subdf3+0x88>
 80020aa:	7ff00693          	li	a3,2047
 80020ae:	fed30be3          	beq	t1,a3,80020a4 <__subdf3+0x16a>
 80020b2:	008006b7          	lui	a3,0x800
 80020b6:	8fd5                	or	a5,a5,a3
 80020b8:	86ae                	mv	a3,a1
 80020ba:	03800593          	li	a1,56
 80020be:	06d5c363          	blt	a1,a3,8002124 <__subdf3+0x1ea>
 80020c2:	45fd                	li	a1,31
 80020c4:	02d5ca63          	blt	a1,a3,80020f8 <__subdf3+0x1be>
 80020c8:	02000293          	li	t0,32
 80020cc:	40d282b3          	sub	t0,t0,a3
 80020d0:	005795b3          	sll	a1,a5,t0
 80020d4:	00d553b3          	srl	t2,a0,a3
 80020d8:	00551533          	sll	a0,a0,t0
 80020dc:	0075e5b3          	or	a1,a1,t2
 80020e0:	00a03533          	snez	a0,a0
 80020e4:	8d4d                	or	a0,a0,a1
 80020e6:	00d7d7b3          	srl	a5,a5,a3
 80020ea:	9532                	add	a0,a0,a2
 80020ec:	97ba                	add	a5,a5,a4
 80020ee:	00c53633          	sltu	a2,a0,a2
 80020f2:	97b2                	add	a5,a5,a2
 80020f4:	849a                	mv	s1,t1
 80020f6:	b705                	j	8002016 <__subdf3+0xdc>
 80020f8:	fe068593          	addi	a1,a3,-32 # 7fffe0 <__min_heap_size+0x7ff7e0>
 80020fc:	02000393          	li	t2,32
 8002100:	00b7d5b3          	srl	a1,a5,a1
 8002104:	4281                	li	t0,0
 8002106:	00768863          	beq	a3,t2,8002116 <__subdf3+0x1dc>
 800210a:	04000293          	li	t0,64
 800210e:	40d286b3          	sub	a3,t0,a3
 8002112:	00d792b3          	sll	t0,a5,a3
 8002116:	00a2e533          	or	a0,t0,a0
 800211a:	00a03533          	snez	a0,a0
 800211e:	8d4d                	or	a0,a0,a1
 8002120:	4781                	li	a5,0
 8002122:	b7e1                	j	80020ea <__subdf3+0x1b0>
 8002124:	8d5d                	or	a0,a0,a5
 8002126:	00a03533          	snez	a0,a0
 800212a:	bfdd                	j	8002120 <__subdf3+0x1e6>
 800212c:	00148693          	addi	a3,s1,1
 8002130:	7fe6f593          	andi	a1,a3,2046
 8002134:	e1bd                	bnez	a1,800219a <__subdf3+0x260>
 8002136:	00a7e6b3          	or	a3,a5,a0
 800213a:	e4a9                	bnez	s1,8002184 <__subdf3+0x24a>
 800213c:	36068c63          	beqz	a3,80024b4 <__subdf3+0x57a>
 8002140:	00c766b3          	or	a3,a4,a2
 8002144:	c285                	beqz	a3,8002164 <__subdf3+0x22a>
 8002146:	962a                	add	a2,a2,a0
 8002148:	97ba                	add	a5,a5,a4
 800214a:	00a63533          	sltu	a0,a2,a0
 800214e:	97aa                	add	a5,a5,a0
 8002150:	00800737          	lui	a4,0x800
 8002154:	8f7d                	and	a4,a4,a5
 8002156:	8532                	mv	a0,a2
 8002158:	c711                	beqz	a4,8002164 <__subdf3+0x22a>
 800215a:	ff800737          	lui	a4,0xff800
 800215e:	177d                	addi	a4,a4,-1
 8002160:	8ff9                	and	a5,a5,a4
 8002162:	4485                	li	s1,1
 8002164:	00757713          	andi	a4,a0,7
 8002168:	34070d63          	beqz	a4,80024c2 <__subdf3+0x588>
 800216c:	00f57713          	andi	a4,a0,15
 8002170:	4691                	li	a3,4
 8002172:	34d70863          	beq	a4,a3,80024c2 <__subdf3+0x588>
 8002176:	00450713          	addi	a4,a0,4 # 10004 <__min_heap_size+0xf804>
 800217a:	00a73533          	sltu	a0,a4,a0
 800217e:	97aa                	add	a5,a5,a0
 8002180:	853a                	mv	a0,a4
 8002182:	a681                	j	80024c2 <__subdf3+0x588>
 8002184:	d285                	beqz	a3,80020a4 <__subdf3+0x16a>
 8002186:	8e59                	or	a2,a2,a4
 8002188:	e2060de3          	beqz	a2,8001fc2 <__subdf3+0x88>
 800218c:	4401                	li	s0,0
 800218e:	004007b7          	lui	a5,0x400
 8002192:	4501                	li	a0,0
 8002194:	7ff00493          	li	s1,2047
 8002198:	a62d                	j	80024c2 <__subdf3+0x588>
 800219a:	7ff00593          	li	a1,2047
 800219e:	30b68e63          	beq	a3,a1,80024ba <__subdf3+0x580>
 80021a2:	962a                	add	a2,a2,a0
 80021a4:	00a63533          	sltu	a0,a2,a0
 80021a8:	97ba                	add	a5,a5,a4
 80021aa:	97aa                	add	a5,a5,a0
 80021ac:	01f79513          	slli	a0,a5,0x1f
 80021b0:	8205                	srli	a2,a2,0x1
 80021b2:	8d51                	or	a0,a0,a2
 80021b4:	8385                	srli	a5,a5,0x1
 80021b6:	84b6                	mv	s1,a3
 80021b8:	b775                	j	8002164 <__subdf3+0x22a>
 80021ba:	0c505563          	blez	t0,8002284 <__subdf3+0x34a>
 80021be:	08031063          	bnez	t1,800223e <__subdf3+0x304>
 80021c2:	00c766b3          	or	a3,a4,a2
 80021c6:	34068c63          	beqz	a3,800251e <__subdf3+0x5e4>
 80021ca:	fff28593          	addi	a1,t0,-1
 80021ce:	e991                	bnez	a1,80021e2 <__subdf3+0x2a8>
 80021d0:	40c50633          	sub	a2,a0,a2
 80021d4:	00c53533          	sltu	a0,a0,a2
 80021d8:	8f99                	sub	a5,a5,a4
 80021da:	8f89                	sub	a5,a5,a0
 80021dc:	8532                	mv	a0,a2
 80021de:	4485                	li	s1,1
 80021e0:	a0b1                	j	800222c <__subdf3+0x2f2>
 80021e2:	7ff00693          	li	a3,2047
 80021e6:	dcd28ee3          	beq	t0,a3,8001fc2 <__subdf3+0x88>
 80021ea:	03800693          	li	a3,56
 80021ee:	08b6c763          	blt	a3,a1,800227c <__subdf3+0x342>
 80021f2:	46fd                	li	a3,31
 80021f4:	04b6ce63          	blt	a3,a1,8002250 <__subdf3+0x316>
 80021f8:	02000313          	li	t1,32
 80021fc:	40b30333          	sub	t1,t1,a1
 8002200:	006716b3          	sll	a3,a4,t1
 8002204:	00b652b3          	srl	t0,a2,a1
 8002208:	00661633          	sll	a2,a2,t1
 800220c:	0056e6b3          	or	a3,a3,t0
 8002210:	00c03633          	snez	a2,a2
 8002214:	8e55                	or	a2,a2,a3
 8002216:	00b75733          	srl	a4,a4,a1
 800221a:	40c50633          	sub	a2,a0,a2
 800221e:	00c53533          	sltu	a0,a0,a2
 8002222:	40e78733          	sub	a4,a5,a4
 8002226:	40a707b3          	sub	a5,a4,a0
 800222a:	8532                	mv	a0,a2
 800222c:	008005b7          	lui	a1,0x800
 8002230:	00b7f733          	and	a4,a5,a1
 8002234:	db05                	beqz	a4,8002164 <__subdf3+0x22a>
 8002236:	15fd                	addi	a1,a1,-1
 8002238:	8dfd                	and	a1,a1,a5
 800223a:	832a                	mv	t1,a0
 800223c:	aa5d                	j	80023f2 <__subdf3+0x4b8>
 800223e:	7ff00693          	li	a3,2047
 8002242:	f2d481e3          	beq	s1,a3,8002164 <__subdf3+0x22a>
 8002246:	008006b7          	lui	a3,0x800
 800224a:	8f55                	or	a4,a4,a3
 800224c:	8596                	mv	a1,t0
 800224e:	bf71                	j	80021ea <__subdf3+0x2b0>
 8002250:	fe058693          	addi	a3,a1,-32 # 7fffe0 <__min_heap_size+0x7ff7e0>
 8002254:	02000293          	li	t0,32
 8002258:	00d756b3          	srl	a3,a4,a3
 800225c:	4301                	li	t1,0
 800225e:	00558863          	beq	a1,t0,800226e <__subdf3+0x334>
 8002262:	04000313          	li	t1,64
 8002266:	40b305b3          	sub	a1,t1,a1
 800226a:	00b71333          	sll	t1,a4,a1
 800226e:	00c36633          	or	a2,t1,a2
 8002272:	00c03633          	snez	a2,a2
 8002276:	8e55                	or	a2,a2,a3
 8002278:	4701                	li	a4,0
 800227a:	b745                	j	800221a <__subdf3+0x2e0>
 800227c:	8e59                	or	a2,a2,a4
 800227e:	00c03633          	snez	a2,a2
 8002282:	bfdd                	j	8002278 <__subdf3+0x33e>
 8002284:	0c028463          	beqz	t0,800234c <__subdf3+0x412>
 8002288:	409302b3          	sub	t0,t1,s1
 800228c:	e895                	bnez	s1,80022c0 <__subdf3+0x386>
 800228e:	00a7e5b3          	or	a1,a5,a0
 8002292:	28058863          	beqz	a1,8002522 <__subdf3+0x5e8>
 8002296:	fff28593          	addi	a1,t0,-1
 800229a:	e991                	bnez	a1,80022ae <__subdf3+0x374>
 800229c:	40a60533          	sub	a0,a2,a0
 80022a0:	40f707b3          	sub	a5,a4,a5
 80022a4:	00a63633          	sltu	a2,a2,a0
 80022a8:	8f91                	sub	a5,a5,a2
 80022aa:	8436                	mv	s0,a3
 80022ac:	bf0d                	j	80021de <__subdf3+0x2a4>
 80022ae:	7ff00393          	li	t2,2047
 80022b2:	00729f63          	bne	t0,t2,80022d0 <__subdf3+0x396>
 80022b6:	87ba                	mv	a5,a4
 80022b8:	8532                	mv	a0,a2
 80022ba:	7ff00493          	li	s1,2047
 80022be:	a07d                	j	800236c <__subdf3+0x432>
 80022c0:	7ff00593          	li	a1,2047
 80022c4:	feb309e3          	beq	t1,a1,80022b6 <__subdf3+0x37c>
 80022c8:	008005b7          	lui	a1,0x800
 80022cc:	8fcd                	or	a5,a5,a1
 80022ce:	8596                	mv	a1,t0
 80022d0:	03800293          	li	t0,56
 80022d4:	06b2c863          	blt	t0,a1,8002344 <__subdf3+0x40a>
 80022d8:	42fd                	li	t0,31
 80022da:	02b2ce63          	blt	t0,a1,8002316 <__subdf3+0x3dc>
 80022de:	02000393          	li	t2,32
 80022e2:	40b383b3          	sub	t2,t2,a1
 80022e6:	007792b3          	sll	t0,a5,t2
 80022ea:	00b55433          	srl	s0,a0,a1
 80022ee:	00751533          	sll	a0,a0,t2
 80022f2:	0082e2b3          	or	t0,t0,s0
 80022f6:	00a03533          	snez	a0,a0
 80022fa:	00a2e533          	or	a0,t0,a0
 80022fe:	00b7d7b3          	srl	a5,a5,a1
 8002302:	40a60533          	sub	a0,a2,a0
 8002306:	40f707b3          	sub	a5,a4,a5
 800230a:	00a63633          	sltu	a2,a2,a0
 800230e:	8f91                	sub	a5,a5,a2
 8002310:	849a                	mv	s1,t1
 8002312:	8436                	mv	s0,a3
 8002314:	bf21                	j	800222c <__subdf3+0x2f2>
 8002316:	fe058293          	addi	t0,a1,-32 # 7fffe0 <__min_heap_size+0x7ff7e0>
 800231a:	02000413          	li	s0,32
 800231e:	0057d2b3          	srl	t0,a5,t0
 8002322:	4381                	li	t2,0
 8002324:	00858863          	beq	a1,s0,8002334 <__subdf3+0x3fa>
 8002328:	04000393          	li	t2,64
 800232c:	40b385b3          	sub	a1,t2,a1
 8002330:	00b793b3          	sll	t2,a5,a1
 8002334:	00a3e533          	or	a0,t2,a0
 8002338:	00a03533          	snez	a0,a0
 800233c:	00a2e533          	or	a0,t0,a0
 8002340:	4781                	li	a5,0
 8002342:	b7c1                	j	8002302 <__subdf3+0x3c8>
 8002344:	8d5d                	or	a0,a0,a5
 8002346:	00a03533          	snez	a0,a0
 800234a:	bfdd                	j	8002340 <__subdf3+0x406>
 800234c:	00148593          	addi	a1,s1,1
 8002350:	7fe5f593          	andi	a1,a1,2046
 8002354:	e9a5                	bnez	a1,80023c4 <__subdf3+0x48a>
 8002356:	00a7e333          	or	t1,a5,a0
 800235a:	00c765b3          	or	a1,a4,a2
 800235e:	e8a1                	bnez	s1,80023ae <__subdf3+0x474>
 8002360:	00031863          	bnez	t1,8002370 <__subdf3+0x436>
 8002364:	1c058363          	beqz	a1,800252a <__subdf3+0x5f0>
 8002368:	87ba                	mv	a5,a4
 800236a:	8532                	mv	a0,a2
 800236c:	8436                	mv	s0,a3
 800236e:	bbdd                	j	8002164 <__subdf3+0x22a>
 8002370:	de058ae3          	beqz	a1,8002164 <__subdf3+0x22a>
 8002374:	40c50333          	sub	t1,a0,a2
 8002378:	006532b3          	sltu	t0,a0,t1
 800237c:	40e785b3          	sub	a1,a5,a4
 8002380:	405585b3          	sub	a1,a1,t0
 8002384:	008002b7          	lui	t0,0x800
 8002388:	0055f2b3          	and	t0,a1,t0
 800238c:	00028a63          	beqz	t0,80023a0 <__subdf3+0x466>
 8002390:	40a60533          	sub	a0,a2,a0
 8002394:	40f707b3          	sub	a5,a4,a5
 8002398:	00a63633          	sltu	a2,a2,a0
 800239c:	8f91                	sub	a5,a5,a2
 800239e:	b7f9                	j	800236c <__subdf3+0x432>
 80023a0:	00b36533          	or	a0,t1,a1
 80023a4:	18050763          	beqz	a0,8002532 <__subdf3+0x5f8>
 80023a8:	87ae                	mv	a5,a1
 80023aa:	851a                	mv	a0,t1
 80023ac:	bb65                	j	8002164 <__subdf3+0x22a>
 80023ae:	00031863          	bnez	t1,80023be <__subdf3+0x484>
 80023b2:	18058263          	beqz	a1,8002536 <__subdf3+0x5fc>
 80023b6:	87ba                	mv	a5,a4
 80023b8:	8532                	mv	a0,a2
 80023ba:	8436                	mv	s0,a3
 80023bc:	b119                	j	8001fc2 <__subdf3+0x88>
 80023be:	c00582e3          	beqz	a1,8001fc2 <__subdf3+0x88>
 80023c2:	b3e9                	j	800218c <__subdf3+0x252>
 80023c4:	40c50333          	sub	t1,a0,a2
 80023c8:	006532b3          	sltu	t0,a0,t1
 80023cc:	40e785b3          	sub	a1,a5,a4
 80023d0:	405585b3          	sub	a1,a1,t0
 80023d4:	008002b7          	lui	t0,0x800
 80023d8:	0055f2b3          	and	t0,a1,t0
 80023dc:	06028a63          	beqz	t0,8002450 <__subdf3+0x516>
 80023e0:	40a60333          	sub	t1,a2,a0
 80023e4:	40f707b3          	sub	a5,a4,a5
 80023e8:	00663633          	sltu	a2,a2,t1
 80023ec:	40c785b3          	sub	a1,a5,a2
 80023f0:	8436                	mv	s0,a3
 80023f2:	c5ad                	beqz	a1,800245c <__subdf3+0x522>
 80023f4:	852e                	mv	a0,a1
 80023f6:	c21a                	sw	t1,4(sp)
 80023f8:	c02e                	sw	a1,0(sp)
 80023fa:	21dd                	jal	80028e0 <__clzsi2>
 80023fc:	4582                	lw	a1,0(sp)
 80023fe:	4312                	lw	t1,4(sp)
 8002400:	ff850713          	addi	a4,a0,-8
 8002404:	47fd                	li	a5,31
 8002406:	06e7c463          	blt	a5,a4,800246e <__subdf3+0x534>
 800240a:	02000793          	li	a5,32
 800240e:	8f99                	sub	a5,a5,a4
 8002410:	00e595b3          	sll	a1,a1,a4
 8002414:	00f357b3          	srl	a5,t1,a5
 8002418:	8fcd                	or	a5,a5,a1
 800241a:	00e31533          	sll	a0,t1,a4
 800241e:	08974163          	blt	a4,s1,80024a0 <__subdf3+0x566>
 8002422:	8f05                	sub	a4,a4,s1
 8002424:	00170613          	addi	a2,a4,1 # ff800001 <__e_f_text+0xf77cd5d9>
 8002428:	46fd                	li	a3,31
 800242a:	04c6c863          	blt	a3,a2,800247a <__subdf3+0x540>
 800242e:	02000713          	li	a4,32
 8002432:	8f11                	sub	a4,a4,a2
 8002434:	00e796b3          	sll	a3,a5,a4
 8002438:	00c555b3          	srl	a1,a0,a2
 800243c:	00e51533          	sll	a0,a0,a4
 8002440:	8ecd                	or	a3,a3,a1
 8002442:	00a03533          	snez	a0,a0
 8002446:	8d55                	or	a0,a0,a3
 8002448:	00c7d7b3          	srl	a5,a5,a2
 800244c:	4481                	li	s1,0
 800244e:	bb19                	j	8002164 <__subdf3+0x22a>
 8002450:	00b36533          	or	a0,t1,a1
 8002454:	fd59                	bnez	a0,80023f2 <__subdf3+0x4b8>
 8002456:	4781                	li	a5,0
 8002458:	4481                	li	s1,0
 800245a:	a8d1                	j	800252e <__subdf3+0x5f4>
 800245c:	851a                	mv	a0,t1
 800245e:	c22e                	sw	a1,4(sp)
 8002460:	c01a                	sw	t1,0(sp)
 8002462:	29bd                	jal	80028e0 <__clzsi2>
 8002464:	4592                	lw	a1,4(sp)
 8002466:	4302                	lw	t1,0(sp)
 8002468:	02050513          	addi	a0,a0,32
 800246c:	bf51                	j	8002400 <__subdf3+0x4c6>
 800246e:	fd850793          	addi	a5,a0,-40
 8002472:	00f317b3          	sll	a5,t1,a5
 8002476:	4501                	li	a0,0
 8002478:	b75d                	j	800241e <__subdf3+0x4e4>
 800247a:	1705                	addi	a4,a4,-31
 800247c:	02000593          	li	a1,32
 8002480:	00e7d733          	srl	a4,a5,a4
 8002484:	4681                	li	a3,0
 8002486:	00b60763          	beq	a2,a1,8002494 <__subdf3+0x55a>
 800248a:	04000693          	li	a3,64
 800248e:	8e91                	sub	a3,a3,a2
 8002490:	00d796b3          	sll	a3,a5,a3
 8002494:	8d55                	or	a0,a0,a3
 8002496:	00a03533          	snez	a0,a0
 800249a:	8d59                	or	a0,a0,a4
 800249c:	4781                	li	a5,0
 800249e:	b77d                	j	800244c <__subdf3+0x512>
 80024a0:	8c99                	sub	s1,s1,a4
 80024a2:	ff800737          	lui	a4,0xff800
 80024a6:	177d                	addi	a4,a4,-1
 80024a8:	8ff9                	and	a5,a5,a4
 80024aa:	b96d                	j	8002164 <__subdf3+0x22a>
 80024ac:	87ba                	mv	a5,a4
 80024ae:	8532                	mv	a0,a2
 80024b0:	84ae                	mv	s1,a1
 80024b2:	b94d                	j	8002164 <__subdf3+0x22a>
 80024b4:	87ba                	mv	a5,a4
 80024b6:	8532                	mv	a0,a2
 80024b8:	b175                	j	8002164 <__subdf3+0x22a>
 80024ba:	7ff00493          	li	s1,2047
 80024be:	4781                	li	a5,0
 80024c0:	4501                	li	a0,0
 80024c2:	00800737          	lui	a4,0x800
 80024c6:	8f7d                	and	a4,a4,a5
 80024c8:	cb11                	beqz	a4,80024dc <__subdf3+0x5a2>
 80024ca:	0485                	addi	s1,s1,1
 80024cc:	7ff00713          	li	a4,2047
 80024d0:	06e48863          	beq	s1,a4,8002540 <__subdf3+0x606>
 80024d4:	ff800737          	lui	a4,0xff800
 80024d8:	177d                	addi	a4,a4,-1
 80024da:	8ff9                	and	a5,a5,a4
 80024dc:	01d79713          	slli	a4,a5,0x1d
 80024e0:	810d                	srli	a0,a0,0x3
 80024e2:	8d59                	or	a0,a0,a4
 80024e4:	7ff00713          	li	a4,2047
 80024e8:	838d                	srli	a5,a5,0x3
 80024ea:	00e49963          	bne	s1,a4,80024fc <__subdf3+0x5c2>
 80024ee:	8d5d                	or	a0,a0,a5
 80024f0:	4781                	li	a5,0
 80024f2:	c509                	beqz	a0,80024fc <__subdf3+0x5c2>
 80024f4:	000807b7          	lui	a5,0x80
 80024f8:	4501                	li	a0,0
 80024fa:	4401                	li	s0,0
 80024fc:	01449713          	slli	a4,s1,0x14
 8002500:	7ff006b7          	lui	a3,0x7ff00
 8002504:	07b2                	slli	a5,a5,0xc
 8002506:	8f75                	and	a4,a4,a3
 8002508:	83b1                	srli	a5,a5,0xc
 800250a:	047e                	slli	s0,s0,0x1f
 800250c:	8fd9                	or	a5,a5,a4
 800250e:	40c2                	lw	ra,16(sp)
 8002510:	0087e733          	or	a4,a5,s0
 8002514:	4432                	lw	s0,12(sp)
 8002516:	44a2                	lw	s1,8(sp)
 8002518:	85ba                	mv	a1,a4
 800251a:	0151                	addi	sp,sp,20
 800251c:	8082                	ret
 800251e:	8496                	mv	s1,t0
 8002520:	b191                	j	8002164 <__subdf3+0x22a>
 8002522:	87ba                	mv	a5,a4
 8002524:	8532                	mv	a0,a2
 8002526:	8496                	mv	s1,t0
 8002528:	b591                	j	800236c <__subdf3+0x432>
 800252a:	4781                	li	a5,0
 800252c:	4501                	li	a0,0
 800252e:	4401                	li	s0,0
 8002530:	bf49                	j	80024c2 <__subdf3+0x588>
 8002532:	4781                	li	a5,0
 8002534:	bfed                	j	800252e <__subdf3+0x5f4>
 8002536:	4501                	li	a0,0
 8002538:	4401                	li	s0,0
 800253a:	004007b7          	lui	a5,0x400
 800253e:	b999                	j	8002194 <__subdf3+0x25a>
 8002540:	4781                	li	a5,0
 8002542:	4501                	li	a0,0
 8002544:	bf61                	j	80024dc <__subdf3+0x5a2>

08002546 <__unorddf2>:
 8002546:	001007b7          	lui	a5,0x100
 800254a:	17fd                	addi	a5,a5,-1
 800254c:	00b7f733          	and	a4,a5,a1
 8002550:	81d1                	srli	a1,a1,0x14
 8002552:	8ff5                	and	a5,a5,a3
 8002554:	7ff5f593          	andi	a1,a1,2047
 8002558:	82d1                	srli	a3,a3,0x14
 800255a:	7ff00313          	li	t1,2047
 800255e:	7ff6f693          	andi	a3,a3,2047
 8002562:	00659563          	bne	a1,t1,800256c <__unorddf2+0x26>
 8002566:	8f49                	or	a4,a4,a0
 8002568:	4505                	li	a0,1
 800256a:	eb09                	bnez	a4,800257c <__unorddf2+0x36>
 800256c:	7ff00713          	li	a4,2047
 8002570:	4501                	li	a0,0
 8002572:	00e69563          	bne	a3,a4,800257c <__unorddf2+0x36>
 8002576:	8fd1                	or	a5,a5,a2
 8002578:	00f03533          	snez	a0,a5
 800257c:	8082                	ret

0800257e <__fixdfsi>:
 800257e:	0145d713          	srli	a4,a1,0x14
 8002582:	001006b7          	lui	a3,0x100
 8002586:	fff68793          	addi	a5,a3,-1 # fffff <__min_heap_size+0xff7ff>
 800258a:	7ff77713          	andi	a4,a4,2047
 800258e:	3fe00613          	li	a2,1022
 8002592:	8fed                	and	a5,a5,a1
 8002594:	81fd                	srli	a1,a1,0x1f
 8002596:	04e65463          	bge	a2,a4,80025de <__fixdfsi+0x60>
 800259a:	41d00613          	li	a2,1053
 800259e:	00e65863          	bge	a2,a4,80025ae <__fixdfsi+0x30>
 80025a2:	80000537          	lui	a0,0x80000
 80025a6:	fff54513          	not	a0,a0
 80025aa:	952e                	add	a0,a0,a1
 80025ac:	8082                	ret
 80025ae:	8fd5                	or	a5,a5,a3
 80025b0:	43300693          	li	a3,1075
 80025b4:	8e99                	sub	a3,a3,a4
 80025b6:	467d                	li	a2,31
 80025b8:	00d64d63          	blt	a2,a3,80025d2 <__fixdfsi+0x54>
 80025bc:	bed70713          	addi	a4,a4,-1043 # ff7ffbed <__e_f_text+0xf77cd1c5>
 80025c0:	00e797b3          	sll	a5,a5,a4
 80025c4:	00d55533          	srl	a0,a0,a3
 80025c8:	8d5d                	or	a0,a0,a5
 80025ca:	c999                	beqz	a1,80025e0 <__fixdfsi+0x62>
 80025cc:	40a00533          	neg	a0,a0
 80025d0:	8082                	ret
 80025d2:	41300513          	li	a0,1043
 80025d6:	8d19                	sub	a0,a0,a4
 80025d8:	00a7d533          	srl	a0,a5,a0
 80025dc:	b7fd                	j	80025ca <__fixdfsi+0x4c>
 80025de:	4501                	li	a0,0
 80025e0:	8082                	ret

080025e2 <__fixunsdfsi>:
 80025e2:	0145d713          	srli	a4,a1,0x14
 80025e6:	00100337          	lui	t1,0x100
 80025ea:	fff30793          	addi	a5,t1,-1 # fffff <__min_heap_size+0xff7ff>
 80025ee:	7ff77713          	andi	a4,a4,2047
 80025f2:	3fe00613          	li	a2,1022
 80025f6:	8fed                	and	a5,a5,a1
 80025f8:	86aa                	mv	a3,a0
 80025fa:	81fd                	srli	a1,a1,0x1f
 80025fc:	04e65163          	bge	a2,a4,800263e <__fixunsdfsi+0x5c>
 8002600:	41f00613          	li	a2,1055
 8002604:	8e0d                	sub	a2,a2,a1
 8002606:	fff58513          	addi	a0,a1,-1
 800260a:	02c75b63          	bge	a4,a2,8002640 <__fixunsdfsi+0x5e>
 800260e:	4501                	li	a0,0
 8002610:	e985                	bnez	a1,8002640 <__fixunsdfsi+0x5e>
 8002612:	43300613          	li	a2,1075
 8002616:	8e19                	sub	a2,a2,a4
 8002618:	45fd                	li	a1,31
 800261a:	0067e7b3          	or	a5,a5,t1
 800261e:	00c5ca63          	blt	a1,a2,8002632 <__fixunsdfsi+0x50>
 8002622:	bed70513          	addi	a0,a4,-1043
 8002626:	00a797b3          	sll	a5,a5,a0
 800262a:	00c6d533          	srl	a0,a3,a2
 800262e:	8d5d                	or	a0,a0,a5
 8002630:	8082                	ret
 8002632:	41300513          	li	a0,1043
 8002636:	8d19                	sub	a0,a0,a4
 8002638:	00a7d533          	srl	a0,a5,a0
 800263c:	8082                	ret
 800263e:	4501                	li	a0,0
 8002640:	8082                	ret

08002642 <__floatsidf>:
 8002642:	1151                	addi	sp,sp,-12
 8002644:	c406                	sw	ra,8(sp)
 8002646:	c222                	sw	s0,4(sp)
 8002648:	c026                	sw	s1,0(sp)
 800264a:	cd21                	beqz	a0,80026a2 <__floatsidf+0x60>
 800264c:	41f55793          	srai	a5,a0,0x1f
 8002650:	00a7c433          	xor	s0,a5,a0
 8002654:	8c1d                	sub	s0,s0,a5
 8002656:	01f55493          	srli	s1,a0,0x1f
 800265a:	8522                	mv	a0,s0
 800265c:	2451                	jal	80028e0 <__clzsi2>
 800265e:	41e00713          	li	a4,1054
 8002662:	47a9                	li	a5,10
 8002664:	8f09                	sub	a4,a4,a0
 8002666:	02a7c863          	blt	a5,a0,8002696 <__floatsidf+0x54>
 800266a:	47ad                	li	a5,11
 800266c:	8f89                	sub	a5,a5,a0
 800266e:	0555                	addi	a0,a0,21
 8002670:	00f457b3          	srl	a5,s0,a5
 8002674:	00a41433          	sll	s0,s0,a0
 8002678:	8526                	mv	a0,s1
 800267a:	07b2                	slli	a5,a5,0xc
 800267c:	0752                	slli	a4,a4,0x14
 800267e:	83b1                	srli	a5,a5,0xc
 8002680:	057e                	slli	a0,a0,0x1f
 8002682:	8fd9                	or	a5,a5,a4
 8002684:	40a2                	lw	ra,8(sp)
 8002686:	00a7e733          	or	a4,a5,a0
 800268a:	8522                	mv	a0,s0
 800268c:	4412                	lw	s0,4(sp)
 800268e:	4482                	lw	s1,0(sp)
 8002690:	85ba                	mv	a1,a4
 8002692:	0131                	addi	sp,sp,12
 8002694:	8082                	ret
 8002696:	1555                	addi	a0,a0,-11
 8002698:	00a417b3          	sll	a5,s0,a0
 800269c:	8526                	mv	a0,s1
 800269e:	4401                	li	s0,0
 80026a0:	bfe9                	j	800267a <__floatsidf+0x38>
 80026a2:	4701                	li	a4,0
 80026a4:	4781                	li	a5,0
 80026a6:	bfe5                	j	800269e <__floatsidf+0x5c>

080026a8 <__floatunsidf>:
 80026a8:	1151                	addi	sp,sp,-12
 80026aa:	c222                	sw	s0,4(sp)
 80026ac:	c406                	sw	ra,8(sp)
 80026ae:	842a                	mv	s0,a0
 80026b0:	c121                	beqz	a0,80026f0 <__floatunsidf+0x48>
 80026b2:	243d                	jal	80028e0 <__clzsi2>
 80026b4:	41e00713          	li	a4,1054
 80026b8:	47a9                	li	a5,10
 80026ba:	8f09                	sub	a4,a4,a0
 80026bc:	02a7c463          	blt	a5,a0,80026e4 <__floatunsidf+0x3c>
 80026c0:	47ad                	li	a5,11
 80026c2:	8f89                	sub	a5,a5,a0
 80026c4:	0555                	addi	a0,a0,21
 80026c6:	00f457b3          	srl	a5,s0,a5
 80026ca:	00a41433          	sll	s0,s0,a0
 80026ce:	40a2                	lw	ra,8(sp)
 80026d0:	8522                	mv	a0,s0
 80026d2:	07b2                	slli	a5,a5,0xc
 80026d4:	4412                	lw	s0,4(sp)
 80026d6:	0752                	slli	a4,a4,0x14
 80026d8:	83b1                	srli	a5,a5,0xc
 80026da:	00f766b3          	or	a3,a4,a5
 80026de:	85b6                	mv	a1,a3
 80026e0:	0131                	addi	sp,sp,12
 80026e2:	8082                	ret
 80026e4:	ff550793          	addi	a5,a0,-11 # 7ffffff5 <__e_f_text+0x77fcd5cd>
 80026e8:	00f417b3          	sll	a5,s0,a5
 80026ec:	4401                	li	s0,0
 80026ee:	b7c5                	j	80026ce <__floatunsidf+0x26>
 80026f0:	4781                	li	a5,0
 80026f2:	4701                	li	a4,0
 80026f4:	bfe9                	j	80026ce <__floatunsidf+0x26>

080026f6 <__lesf2>:
 80026f6:	01755693          	srli	a3,a0,0x17
 80026fa:	008007b7          	lui	a5,0x800
 80026fe:	17fd                	addi	a5,a5,-1
 8002700:	0175d713          	srli	a4,a1,0x17
 8002704:	0ff6f693          	andi	a3,a3,255
 8002708:	0ff00313          	li	t1,255
 800270c:	00a7f633          	and	a2,a5,a0
 8002710:	0ff77713          	andi	a4,a4,255
 8002714:	8fed                	and	a5,a5,a1
 8002716:	817d                	srli	a0,a0,0x1f
 8002718:	81fd                	srli	a1,a1,0x1f
 800271a:	00669663          	bne	a3,t1,8002726 <__lesf2+0x30>
 800271e:	04060b63          	beqz	a2,8002774 <__lesf2+0x7e>
 8002722:	4509                	li	a0,2
 8002724:	8082                	ret
 8002726:	00671463          	bne	a4,t1,800272e <__lesf2+0x38>
 800272a:	fe079ce3          	bnez	a5,8002722 <__lesf2+0x2c>
 800272e:	04069563          	bnez	a3,8002778 <__lesf2+0x82>
 8002732:	00071463          	bnez	a4,800273a <__lesf2+0x44>
 8002736:	02078d63          	beqz	a5,8002770 <__lesf2+0x7a>
 800273a:	00060a63          	beqz	a2,800274e <__lesf2+0x58>
 800273e:	00b51463          	bne	a0,a1,8002746 <__lesf2+0x50>
 8002742:	00d75a63          	bge	a4,a3,8002756 <__lesf2+0x60>
 8002746:	02050363          	beqz	a0,800276c <__lesf2+0x76>
 800274a:	557d                	li	a0,-1
 800274c:	8082                	ret
 800274e:	557d                	li	a0,-1
 8002750:	c599                	beqz	a1,800275e <__lesf2+0x68>
 8002752:	852e                	mv	a0,a1
 8002754:	8082                	ret
 8002756:	00e6d563          	bge	a3,a4,8002760 <__lesf2+0x6a>
 800275a:	fe0508e3          	beqz	a0,800274a <__lesf2+0x54>
 800275e:	8082                	ret
 8002760:	fec7e3e3          	bltu	a5,a2,8002746 <__lesf2+0x50>
 8002764:	fef66be3          	bltu	a2,a5,800275a <__lesf2+0x64>
 8002768:	4501                	li	a0,0
 800276a:	8082                	ret
 800276c:	4505                	li	a0,1
 800276e:	8082                	ret
 8002770:	de65                	beqz	a2,8002768 <__lesf2+0x72>
 8002772:	bfd1                	j	8002746 <__lesf2+0x50>
 8002774:	fad70be3          	beq	a4,a3,800272a <__lesf2+0x34>
 8002778:	fc0713e3          	bnez	a4,800273e <__lesf2+0x48>
 800277c:	fc0785e3          	beqz	a5,8002746 <__lesf2+0x50>
 8002780:	bf7d                	j	800273e <__lesf2+0x48>

08002782 <__unordsf2>:
 8002782:	008007b7          	lui	a5,0x800
 8002786:	17fd                	addi	a5,a5,-1
 8002788:	00a7f733          	and	a4,a5,a0
 800278c:	815d                	srli	a0,a0,0x17
 800278e:	8fed                	and	a5,a5,a1
 8002790:	0ff57513          	andi	a0,a0,255
 8002794:	81dd                	srli	a1,a1,0x17
 8002796:	0ff00693          	li	a3,255
 800279a:	0ff5f593          	andi	a1,a1,255
 800279e:	00d51463          	bne	a0,a3,80027a6 <__unordsf2+0x24>
 80027a2:	4505                	li	a0,1
 80027a4:	eb01                	bnez	a4,80027b4 <__unordsf2+0x32>
 80027a6:	0ff00713          	li	a4,255
 80027aa:	4501                	li	a0,0
 80027ac:	00e59463          	bne	a1,a4,80027b4 <__unordsf2+0x32>
 80027b0:	00f03533          	snez	a0,a5
 80027b4:	8082                	ret

080027b6 <__truncdfsf2>:
 80027b6:	00c59713          	slli	a4,a1,0xc
 80027ba:	0145d693          	srli	a3,a1,0x14
 80027be:	00975793          	srli	a5,a4,0x9
 80027c2:	7ff6f293          	andi	t0,a3,2047
 80027c6:	01d55713          	srli	a4,a0,0x1d
 80027ca:	8f5d                	or	a4,a4,a5
 80027cc:	00128793          	addi	a5,t0,1 # 800001 <__min_heap_size+0x7ff801>
 80027d0:	7fe7f793          	andi	a5,a5,2046
 80027d4:	81fd                	srli	a1,a1,0x1f
 80027d6:	00351393          	slli	t2,a0,0x3
 80027da:	c7c1                	beqz	a5,8002862 <__truncdfsf2+0xac>
 80027dc:	c8028313          	addi	t1,t0,-896
 80027e0:	0fe00793          	li	a5,254
 80027e4:	0867cd63          	blt	a5,t1,800287e <__truncdfsf2+0xc8>
 80027e8:	06604363          	bgtz	t1,800284e <__truncdfsf2+0x98>
 80027ec:	57a5                	li	a5,-23
 80027ee:	0cf34e63          	blt	t1,a5,80028ca <__truncdfsf2+0x114>
 80027f2:	008007b7          	lui	a5,0x800
 80027f6:	4679                	li	a2,30
 80027f8:	8f5d                	or	a4,a4,a5
 80027fa:	40660633          	sub	a2,a2,t1
 80027fe:	47fd                	li	a5,31
 8002800:	02c7c363          	blt	a5,a2,8002826 <__truncdfsf2+0x70>
 8002804:	c8228693          	addi	a3,t0,-894
 8002808:	00d397b3          	sll	a5,t2,a3
 800280c:	00f037b3          	snez	a5,a5
 8002810:	00d71733          	sll	a4,a4,a3
 8002814:	00c3d633          	srl	a2,t2,a2
 8002818:	8fd9                	or	a5,a5,a4
 800281a:	8fd1                	or	a5,a5,a2
 800281c:	4301                	li	t1,0
 800281e:	0077f713          	andi	a4,a5,7
 8002822:	c32d                	beqz	a4,8002884 <__truncdfsf2+0xce>
 8002824:	a06d                	j	80028ce <__truncdfsf2+0x118>
 8002826:	57f9                	li	a5,-2
 8002828:	406787b3          	sub	a5,a5,t1
 800282c:	02000513          	li	a0,32
 8002830:	00f757b3          	srl	a5,a4,a5
 8002834:	4681                	li	a3,0
 8002836:	00a60663          	beq	a2,a0,8002842 <__truncdfsf2+0x8c>
 800283a:	ca228693          	addi	a3,t0,-862
 800283e:	00d716b3          	sll	a3,a4,a3
 8002842:	0076e6b3          	or	a3,a3,t2
 8002846:	00d036b3          	snez	a3,a3
 800284a:	8fd5                	or	a5,a5,a3
 800284c:	bfc1                	j	800281c <__truncdfsf2+0x66>
 800284e:	00651693          	slli	a3,a0,0x6
 8002852:	00d036b3          	snez	a3,a3
 8002856:	070e                	slli	a4,a4,0x3
 8002858:	01d3d793          	srli	a5,t2,0x1d
 800285c:	8f55                	or	a4,a4,a3
 800285e:	8fd9                	or	a5,a5,a4
 8002860:	bf7d                	j	800281e <__truncdfsf2+0x68>
 8002862:	007767b3          	or	a5,a4,t2
 8002866:	00029563          	bnez	t0,8002870 <__truncdfsf2+0xba>
 800286a:	00f037b3          	snez	a5,a5
 800286e:	b77d                	j	800281c <__truncdfsf2+0x66>
 8002870:	0ff00313          	li	t1,255
 8002874:	cb81                	beqz	a5,8002884 <__truncdfsf2+0xce>
 8002876:	070e                	slli	a4,a4,0x3
 8002878:	020007b7          	lui	a5,0x2000
 800287c:	b7cd                	j	800285e <__truncdfsf2+0xa8>
 800287e:	4781                	li	a5,0
 8002880:	0ff00313          	li	t1,255
 8002884:	04000737          	lui	a4,0x4000
 8002888:	8f7d                	and	a4,a4,a5
 800288a:	cb11                	beqz	a4,800289e <__truncdfsf2+0xe8>
 800288c:	0305                	addi	t1,t1,1
 800288e:	0ff00713          	li	a4,255
 8002892:	04e30563          	beq	t1,a4,80028dc <__truncdfsf2+0x126>
 8002896:	fc000737          	lui	a4,0xfc000
 800289a:	177d                	addi	a4,a4,-1
 800289c:	8ff9                	and	a5,a5,a4
 800289e:	0ff00713          	li	a4,255
 80028a2:	838d                	srli	a5,a5,0x3
 80028a4:	00e31763          	bne	t1,a4,80028b2 <__truncdfsf2+0xfc>
 80028a8:	00078563          	beqz	a5,80028b2 <__truncdfsf2+0xfc>
 80028ac:	004007b7          	lui	a5,0x400
 80028b0:	4581                	li	a1,0
 80028b2:	01731513          	slli	a0,t1,0x17
 80028b6:	7f800737          	lui	a4,0x7f800
 80028ba:	07a6                	slli	a5,a5,0x9
 80028bc:	8d79                	and	a0,a0,a4
 80028be:	83a5                	srli	a5,a5,0x9
 80028c0:	8fc9                	or	a5,a5,a0
 80028c2:	01f59513          	slli	a0,a1,0x1f
 80028c6:	8d5d                	or	a0,a0,a5
 80028c8:	8082                	ret
 80028ca:	4785                	li	a5,1
 80028cc:	4301                	li	t1,0
 80028ce:	00f7f713          	andi	a4,a5,15
 80028d2:	4691                	li	a3,4
 80028d4:	fad708e3          	beq	a4,a3,8002884 <__truncdfsf2+0xce>
 80028d8:	0791                	addi	a5,a5,4
 80028da:	b76d                	j	8002884 <__truncdfsf2+0xce>
 80028dc:	4781                	li	a5,0
 80028de:	b7c1                	j	800289e <__truncdfsf2+0xe8>

080028e0 <__clzsi2>:
 80028e0:	67c1                	lui	a5,0x10
 80028e2:	02f57663          	bgeu	a0,a5,800290e <__clzsi2+0x2e>
 80028e6:	0ff00793          	li	a5,255
 80028ea:	00a7b7b3          	sltu	a5,a5,a0
 80028ee:	078e                	slli	a5,a5,0x3
 80028f0:	02000713          	li	a4,32
 80028f4:	8f1d                	sub	a4,a4,a5
 80028f6:	00f55533          	srl	a0,a0,a5
 80028fa:	0002b797          	auipc	a5,0x2b
 80028fe:	08678793          	addi	a5,a5,134 # 802d980 <__clz_tab>
 8002902:	953e                	add	a0,a0,a5
 8002904:	00054503          	lbu	a0,0(a0)
 8002908:	40a70533          	sub	a0,a4,a0
 800290c:	8082                	ret
 800290e:	01000737          	lui	a4,0x1000
 8002912:	47c1                	li	a5,16
 8002914:	fce56ee3          	bltu	a0,a4,80028f0 <__clzsi2+0x10>
 8002918:	47e1                	li	a5,24
 800291a:	bfd9                	j	80028f0 <__clzsi2+0x10>

0800291c <__errno>:
 800291c:	0001a503          	lw	a0,0(gp) # 2000c70 <_impure_ptr>
 8002920:	8082                	ret

08002922 <memcmp>:
 8002922:	478d                	li	a5,3
 8002924:	02c7f063          	bgeu	a5,a2,8002944 <memcmp+0x22>
 8002928:	00b567b3          	or	a5,a0,a1
 800292c:	8b8d                	andi	a5,a5,3
 800292e:	468d                	li	a3,3
 8002930:	ef9d                	bnez	a5,800296e <memcmp+0x4c>
 8002932:	4118                	lw	a4,0(a0)
 8002934:	419c                	lw	a5,0(a1)
 8002936:	02f71c63          	bne	a4,a5,800296e <memcmp+0x4c>
 800293a:	1671                	addi	a2,a2,-4
 800293c:	0511                	addi	a0,a0,4
 800293e:	0591                	addi	a1,a1,4
 8002940:	fec6e9e3          	bltu	a3,a2,8002932 <memcmp+0x10>
 8002944:	fff60693          	addi	a3,a2,-1
 8002948:	c20d                	beqz	a2,800296a <memcmp+0x48>
 800294a:	0685                	addi	a3,a3,1
 800294c:	96aa                	add	a3,a3,a0
 800294e:	a019                	j	8002954 <memcmp+0x32>
 8002950:	00d50d63          	beq	a0,a3,800296a <memcmp+0x48>
 8002954:	00054783          	lbu	a5,0(a0)
 8002958:	0005c703          	lbu	a4,0(a1)
 800295c:	0505                	addi	a0,a0,1
 800295e:	0585                	addi	a1,a1,1
 8002960:	fee788e3          	beq	a5,a4,8002950 <memcmp+0x2e>
 8002964:	40e78533          	sub	a0,a5,a4
 8002968:	8082                	ret
 800296a:	4501                	li	a0,0
 800296c:	8082                	ret
 800296e:	fff60693          	addi	a3,a2,-1
 8002972:	bfe1                	j	800294a <memcmp+0x28>

08002974 <memcpy>:
 8002974:	00463693          	sltiu	a3,a2,4
 8002978:	82aa                	mv	t0,a0
 800297a:	00c50333          	add	t1,a0,a2
 800297e:	e6a5                	bnez	a3,80029e6 <memcpy+0x72>
 8002980:	00b546b3          	xor	a3,a0,a1
 8002984:	8a8d                	andi	a3,a3,3
 8002986:	e2a5                	bnez	a3,80029e6 <memcpy+0x72>
 8002988:	00357693          	andi	a3,a0,3
 800298c:	4391                	li	t2,4
 800298e:	e6bd                	bnez	a3,80029fc <memcpy+0x88>
 8002990:	ffc37393          	andi	t2,t1,-4
 8002994:	fe038313          	addi	t1,t2,-32 # ffe0 <__min_heap_size+0xf7e0>
 8002998:	02a36a63          	bltu	t1,a0,80029cc <memcpy+0x58>
 800299c:	8a7d                	andi	a2,a2,31
 800299e:	0001                	nop
 80029a0:	4198                	lw	a4,0(a1)
 80029a2:	c118                	sw	a4,0(a0)
 80029a4:	41dc                	lw	a5,4(a1)
 80029a6:	c15c                	sw	a5,4(a0)
 80029a8:	4598                	lw	a4,8(a1)
 80029aa:	c518                	sw	a4,8(a0)
 80029ac:	45dc                	lw	a5,12(a1)
 80029ae:	c55c                	sw	a5,12(a0)
 80029b0:	4998                	lw	a4,16(a1)
 80029b2:	c918                	sw	a4,16(a0)
 80029b4:	49dc                	lw	a5,20(a1)
 80029b6:	c95c                	sw	a5,20(a0)
 80029b8:	4d98                	lw	a4,24(a1)
 80029ba:	cd18                	sw	a4,24(a0)
 80029bc:	4ddc                	lw	a5,28(a1)
 80029be:	02058593          	addi	a1,a1,32
 80029c2:	cd5c                	sw	a5,28(a0)
 80029c4:	02050513          	addi	a0,a0,32
 80029c8:	fca37ce3          	bgeu	t1,a0,80029a0 <memcpy+0x2c>
 80029cc:	ffc38313          	addi	t1,t2,-4
 80029d0:	00a36963          	bltu	t1,a0,80029e2 <memcpy+0x6e>
 80029d4:	8a0d                	andi	a2,a2,3
 80029d6:	4198                	lw	a4,0(a1)
 80029d8:	0591                	addi	a1,a1,4
 80029da:	c118                	sw	a4,0(a0)
 80029dc:	0511                	addi	a0,a0,4
 80029de:	fea37ce3          	bgeu	t1,a0,80029d6 <memcpy+0x62>
 80029e2:	00c50333          	add	t1,a0,a2
 80029e6:	ca09                	beqz	a2,80029f8 <memcpy+0x84>
 80029e8:	00058703          	lb	a4,0(a1)
 80029ec:	0585                	addi	a1,a1,1
 80029ee:	00e50023          	sb	a4,0(a0)
 80029f2:	0505                	addi	a0,a0,1
 80029f4:	fe656ae3          	bltu	a0,t1,80029e8 <memcpy+0x74>
 80029f8:	8516                	mv	a0,t0
 80029fa:	8082                	ret
 80029fc:	40d386b3          	sub	a3,t2,a3
 8002a00:	83b6                	mv	t2,a3
 8002a02:	00058703          	lb	a4,0(a1)
 8002a06:	0585                	addi	a1,a1,1
 8002a08:	16fd                	addi	a3,a3,-1
 8002a0a:	00e50023          	sb	a4,0(a0)
 8002a0e:	0505                	addi	a0,a0,1
 8002a10:	faed                	bnez	a3,8002a02 <memcpy+0x8e>
 8002a12:	40760633          	sub	a2,a2,t2
 8002a16:	00263693          	sltiu	a3,a2,2
 8002a1a:	f6f1                	bnez	a3,80029e6 <memcpy+0x72>
 8002a1c:	bf95                	j	8002990 <memcpy+0x1c>
	...

08002a20 <memset>:
 8002a20:	433d                	li	t1,15
 8002a22:	872a                	mv	a4,a0
 8002a24:	02c37563          	bgeu	t1,a2,8002a4e <memset+0x2e>
 8002a28:	00f77793          	andi	a5,a4,15
 8002a2c:	e3c9                	bnez	a5,8002aae <memset+0x8e>
 8002a2e:	06059763          	bnez	a1,8002a9c <memset+0x7c>
 8002a32:	ff067693          	andi	a3,a2,-16
 8002a36:	8a3d                	andi	a2,a2,15
 8002a38:	96ba                	add	a3,a3,a4
 8002a3a:	c30c                	sw	a1,0(a4)
 8002a3c:	c34c                	sw	a1,4(a4)
 8002a3e:	c70c                	sw	a1,8(a4)
 8002a40:	c74c                	sw	a1,12(a4)
 8002a42:	0741                	addi	a4,a4,16
 8002a44:	fed76be3          	bltu	a4,a3,8002a3a <memset+0x1a>
 8002a48:	00061363          	bnez	a2,8002a4e <memset+0x2e>
 8002a4c:	8082                	ret
 8002a4e:	40c306b3          	sub	a3,t1,a2
 8002a52:	068a                	slli	a3,a3,0x2
 8002a54:	00000297          	auipc	t0,0x0
 8002a58:	9696                	add	a3,a3,t0
 8002a5a:	00a68067          	jr	10(a3)
 8002a5e:	00b70723          	sb	a1,14(a4) # 100000e <__min_heap_size+0xfff80e>
 8002a62:	00b706a3          	sb	a1,13(a4)
 8002a66:	00b70623          	sb	a1,12(a4)
 8002a6a:	00b705a3          	sb	a1,11(a4)
 8002a6e:	00b70523          	sb	a1,10(a4)
 8002a72:	00b704a3          	sb	a1,9(a4)
 8002a76:	00b70423          	sb	a1,8(a4)
 8002a7a:	00b703a3          	sb	a1,7(a4)
 8002a7e:	00b70323          	sb	a1,6(a4)
 8002a82:	00b702a3          	sb	a1,5(a4)
 8002a86:	00b70223          	sb	a1,4(a4)
 8002a8a:	00b701a3          	sb	a1,3(a4)
 8002a8e:	00b70123          	sb	a1,2(a4)
 8002a92:	00b700a3          	sb	a1,1(a4)
 8002a96:	00b70023          	sb	a1,0(a4)
 8002a9a:	8082                	ret
 8002a9c:	0ff5f593          	andi	a1,a1,255
 8002aa0:	00859693          	slli	a3,a1,0x8
 8002aa4:	8dd5                	or	a1,a1,a3
 8002aa6:	01059693          	slli	a3,a1,0x10
 8002aaa:	8dd5                	or	a1,a1,a3
 8002aac:	b759                	j	8002a32 <memset+0x12>
 8002aae:	00279693          	slli	a3,a5,0x2
 8002ab2:	00000297          	auipc	t0,0x0
 8002ab6:	9696                	add	a3,a3,t0
 8002ab8:	8286                	mv	t0,ra
 8002aba:	fa8680e7          	jalr	-88(a3)
 8002abe:	8096                	mv	ra,t0
 8002ac0:	17c1                	addi	a5,a5,-16
 8002ac2:	8f1d                	sub	a4,a4,a5
 8002ac4:	963e                	add	a2,a2,a5
 8002ac6:	f8c374e3          	bgeu	t1,a2,8002a4e <memset+0x2e>
 8002aca:	b795                	j	8002a2e <memset+0xe>
	...

08002ace <sscanf>:
 8002ace:	f7810113          	addi	sp,sp,-136
 8002ad2:	c33e                	sw	a5,132(sp)
 8002ad4:	20400793          	li	a5,516
 8002ad8:	da86                	sw	ra,116(sp)
 8002ada:	d8a2                	sw	s0,112(sp)
 8002adc:	dcb2                	sw	a2,120(sp)
 8002ade:	842e                	mv	s0,a1
 8002ae0:	deb6                	sw	a3,124(sp)
 8002ae2:	c13a                	sw	a4,128(sp)
 8002ae4:	00f11823          	sh	a5,16(sp)
 8002ae8:	c22a                	sw	a0,4(sp)
 8002aea:	ca2a                	sw	a0,20(sp)
 8002aec:	22a5                	jal	8002c54 <strlen>
 8002aee:	87aa                	mv	a5,a0
 8002af0:	0001a503          	lw	a0,0(gp) # 2000c70 <_impure_ptr>
 8002af4:	c43e                	sw	a5,8(sp)
 8002af6:	cc3e                	sw	a5,24(sp)
 8002af8:	00000797          	auipc	a5,0x0
 8002afc:	0b678793          	addi	a5,a5,182 # 8002bae <__seofread>
 8002b00:	18b4                	addi	a3,sp,120
 8002b02:	d23e                	sw	a5,36(sp)
 8002b04:	8622                	mv	a2,s0
 8002b06:	004c                	addi	a1,sp,4
 8002b08:	57fd                	li	a5,-1
 8002b0a:	da02                	sw	zero,52(sp)
 8002b0c:	c482                	sw	zero,72(sp)
 8002b0e:	00f11923          	sh	a5,18(sp)
 8002b12:	c036                	sw	a3,0(sp)
 8002b14:	2655                	jal	8002eb8 <__ssvfscanf_r>
 8002b16:	50d6                	lw	ra,116(sp)
 8002b18:	5446                	lw	s0,112(sp)
 8002b1a:	08810113          	addi	sp,sp,136
 8002b1e:	8082                	ret

08002b20 <_sscanf_r>:
 8002b20:	f7c10113          	addi	sp,sp,-132
 8002b24:	d8a2                	sw	s0,112(sp)
 8002b26:	c13e                	sw	a5,128(sp)
 8002b28:	842a                	mv	s0,a0
 8002b2a:	20400793          	li	a5,516
 8002b2e:	852e                	mv	a0,a1
 8002b30:	da86                	sw	ra,116(sp)
 8002b32:	d6a6                	sw	s1,108(sp)
 8002b34:	dcb6                	sw	a3,120(sp)
 8002b36:	84b2                	mv	s1,a2
 8002b38:	deba                	sw	a4,124(sp)
 8002b3a:	00f11823          	sh	a5,16(sp)
 8002b3e:	c22e                	sw	a1,4(sp)
 8002b40:	ca2e                	sw	a1,20(sp)
 8002b42:	2a09                	jal	8002c54 <strlen>
 8002b44:	87aa                	mv	a5,a0
 8002b46:	c43e                	sw	a5,8(sp)
 8002b48:	cc3e                	sw	a5,24(sp)
 8002b4a:	00000797          	auipc	a5,0x0
 8002b4e:	06478793          	addi	a5,a5,100 # 8002bae <__seofread>
 8002b52:	18b4                	addi	a3,sp,120
 8002b54:	d23e                	sw	a5,36(sp)
 8002b56:	8626                	mv	a2,s1
 8002b58:	004c                	addi	a1,sp,4
 8002b5a:	8522                	mv	a0,s0
 8002b5c:	57fd                	li	a5,-1
 8002b5e:	da02                	sw	zero,52(sp)
 8002b60:	c482                	sw	zero,72(sp)
 8002b62:	00f11923          	sh	a5,18(sp)
 8002b66:	c036                	sw	a3,0(sp)
 8002b68:	2e81                	jal	8002eb8 <__ssvfscanf_r>
 8002b6a:	50d6                	lw	ra,116(sp)
 8002b6c:	5446                	lw	s0,112(sp)
 8002b6e:	54b6                	lw	s1,108(sp)
 8002b70:	08410113          	addi	sp,sp,132
 8002b74:	8082                	ret

08002b76 <__sread>:
 8002b76:	1151                	addi	sp,sp,-12
 8002b78:	c222                	sw	s0,4(sp)
 8002b7a:	842e                	mv	s0,a1
 8002b7c:	00e59583          	lh	a1,14(a1)
 8002b80:	c406                	sw	ra,8(sp)
 8002b82:	325030ef          	jal	ra,80066a6 <_read_r>
 8002b86:	00054963          	bltz	a0,8002b98 <__sread+0x22>
 8002b8a:	483c                	lw	a5,80(s0)
 8002b8c:	40a2                	lw	ra,8(sp)
 8002b8e:	97aa                	add	a5,a5,a0
 8002b90:	c83c                	sw	a5,80(s0)
 8002b92:	4412                	lw	s0,4(sp)
 8002b94:	0131                	addi	sp,sp,12
 8002b96:	8082                	ret
 8002b98:	00c45783          	lhu	a5,12(s0) # 8000c <__min_heap_size+0x7f80c>
 8002b9c:	777d                	lui	a4,0xfffff
 8002b9e:	177d                	addi	a4,a4,-1
 8002ba0:	8ff9                	and	a5,a5,a4
 8002ba2:	40a2                	lw	ra,8(sp)
 8002ba4:	00f41623          	sh	a5,12(s0)
 8002ba8:	4412                	lw	s0,4(sp)
 8002baa:	0131                	addi	sp,sp,12
 8002bac:	8082                	ret

08002bae <__seofread>:
 8002bae:	4501                	li	a0,0
 8002bb0:	8082                	ret

08002bb2 <__swrite>:
 8002bb2:	00c59783          	lh	a5,12(a1)
 8002bb6:	1131                	addi	sp,sp,-20
 8002bb8:	c622                	sw	s0,12(sp)
 8002bba:	c426                	sw	s1,8(sp)
 8002bbc:	c806                	sw	ra,16(sp)
 8002bbe:	1007f293          	andi	t0,a5,256
 8002bc2:	842e                	mv	s0,a1
 8002bc4:	84aa                	mv	s1,a0
 8002bc6:	00e59583          	lh	a1,14(a1)
 8002bca:	8732                	mv	a4,a2
 8002bcc:	8336                	mv	t1,a3
 8002bce:	02029063          	bnez	t0,8002bee <__swrite+0x3c>
 8002bd2:	76fd                	lui	a3,0xfffff
 8002bd4:	16fd                	addi	a3,a3,-1
 8002bd6:	8ff5                	and	a5,a5,a3
 8002bd8:	00f41623          	sh	a5,12(s0)
 8002bdc:	4432                	lw	s0,12(sp)
 8002bde:	40c2                	lw	ra,16(sp)
 8002be0:	8526                	mv	a0,s1
 8002be2:	44a2                	lw	s1,8(sp)
 8002be4:	869a                	mv	a3,t1
 8002be6:	863a                	mv	a2,a4
 8002be8:	0151                	addi	sp,sp,20
 8002bea:	04f0306f          	j	8006438 <_write_r>
 8002bee:	c236                	sw	a3,4(sp)
 8002bf0:	c032                	sw	a2,0(sp)
 8002bf2:	4689                	li	a3,2
 8002bf4:	4601                	li	a2,0
 8002bf6:	189030ef          	jal	ra,800657e <_lseek_r>
 8002bfa:	00c41783          	lh	a5,12(s0)
 8002bfe:	00e41583          	lh	a1,14(s0)
 8002c02:	4312                	lw	t1,4(sp)
 8002c04:	4702                	lw	a4,0(sp)
 8002c06:	b7f1                	j	8002bd2 <__swrite+0x20>

08002c08 <__sseek>:
 8002c08:	1151                	addi	sp,sp,-12
 8002c0a:	c222                	sw	s0,4(sp)
 8002c0c:	842e                	mv	s0,a1
 8002c0e:	00e59583          	lh	a1,14(a1)
 8002c12:	c406                	sw	ra,8(sp)
 8002c14:	16b030ef          	jal	ra,800657e <_lseek_r>
 8002c18:	57fd                	li	a5,-1
 8002c1a:	00f50d63          	beq	a0,a5,8002c34 <__sseek+0x2c>
 8002c1e:	00c45783          	lhu	a5,12(s0)
 8002c22:	6705                	lui	a4,0x1
 8002c24:	40a2                	lw	ra,8(sp)
 8002c26:	8fd9                	or	a5,a5,a4
 8002c28:	c828                	sw	a0,80(s0)
 8002c2a:	00f41623          	sh	a5,12(s0)
 8002c2e:	4412                	lw	s0,4(sp)
 8002c30:	0131                	addi	sp,sp,12
 8002c32:	8082                	ret
 8002c34:	00c45783          	lhu	a5,12(s0)
 8002c38:	777d                	lui	a4,0xfffff
 8002c3a:	177d                	addi	a4,a4,-1
 8002c3c:	8ff9                	and	a5,a5,a4
 8002c3e:	40a2                	lw	ra,8(sp)
 8002c40:	00f41623          	sh	a5,12(s0)
 8002c44:	4412                	lw	s0,4(sp)
 8002c46:	0131                	addi	sp,sp,12
 8002c48:	8082                	ret

08002c4a <__sclose>:
 8002c4a:	00e59583          	lh	a1,14(a1)
 8002c4e:	0210306f          	j	800646e <_close_r>
	...

08002c54 <strlen>:
 8002c54:	00357793          	andi	a5,a0,3
 8002c58:	872a                	mv	a4,a0
 8002c5a:	ef9d                	bnez	a5,8002c98 <strlen+0x44>
 8002c5c:	7f7f86b7          	lui	a3,0x7f7f8
 8002c60:	f7f68693          	addi	a3,a3,-129 # 7f7f7f7f <__e_f_text+0x777c5557>
 8002c64:	55fd                	li	a1,-1
 8002c66:	4310                	lw	a2,0(a4)
 8002c68:	0711                	addi	a4,a4,4
 8002c6a:	00d677b3          	and	a5,a2,a3
 8002c6e:	97b6                	add	a5,a5,a3
 8002c70:	8fd1                	or	a5,a5,a2
 8002c72:	8fd5                	or	a5,a5,a3
 8002c74:	feb789e3          	beq	a5,a1,8002c66 <strlen+0x12>
 8002c78:	ffc74683          	lbu	a3,-4(a4) # ffffeffc <__e_f_text+0xf7fcc5d4>
 8002c7c:	ffd74603          	lbu	a2,-3(a4)
 8002c80:	ffe74783          	lbu	a5,-2(a4)
 8002c84:	8f09                	sub	a4,a4,a0
 8002c86:	c695                	beqz	a3,8002cb2 <strlen+0x5e>
 8002c88:	02060263          	beqz	a2,8002cac <strlen+0x58>
 8002c8c:	00f03533          	snez	a0,a5
 8002c90:	953a                	add	a0,a0,a4
 8002c92:	1579                	addi	a0,a0,-2
 8002c94:	8082                	ret
 8002c96:	d2f9                	beqz	a3,8002c5c <strlen+0x8>
 8002c98:	00074783          	lbu	a5,0(a4)
 8002c9c:	0705                	addi	a4,a4,1
 8002c9e:	00377693          	andi	a3,a4,3
 8002ca2:	fbf5                	bnez	a5,8002c96 <strlen+0x42>
 8002ca4:	8f09                	sub	a4,a4,a0
 8002ca6:	fff70513          	addi	a0,a4,-1
 8002caa:	8082                	ret
 8002cac:	ffd70513          	addi	a0,a4,-3
 8002cb0:	8082                	ret
 8002cb2:	ffc70513          	addi	a0,a4,-4
 8002cb6:	8082                	ret
	...

08002cba <strncat>:
 8002cba:	00357713          	andi	a4,a0,3
 8002cbe:	87aa                	mv	a5,a0
 8002cc0:	eb1d                	bnez	a4,8002cf6 <strncat+0x3c>
 8002cc2:	4114                	lw	a3,0(a0)
 8002cc4:	feff02b7          	lui	t0,0xfeff0
 8002cc8:	eff28293          	addi	t0,t0,-257 # fefefeff <__e_f_text+0xf6fbd4d7>
 8002ccc:	fff6c713          	not	a4,a3
 8002cd0:	80808337          	lui	t1,0x80808
 8002cd4:	9696                	add	a3,a3,t0
 8002cd6:	8f75                	and	a4,a4,a3
 8002cd8:	08030313          	addi	t1,t1,128 # 80808080 <__e_f_text+0x787d5658>
 8002cdc:	00677733          	and	a4,a4,t1
 8002ce0:	eb19                	bnez	a4,8002cf6 <strncat+0x3c>
 8002ce2:	43d4                	lw	a3,4(a5)
 8002ce4:	0791                	addi	a5,a5,4
 8002ce6:	00568733          	add	a4,a3,t0
 8002cea:	fff6c693          	not	a3,a3
 8002cee:	8f75                	and	a4,a4,a3
 8002cf0:	00677733          	and	a4,a4,t1
 8002cf4:	d77d                	beqz	a4,8002ce2 <strncat+0x28>
 8002cf6:	0007c703          	lbu	a4,0(a5)
 8002cfa:	c709                	beqz	a4,8002d04 <strncat+0x4a>
 8002cfc:	0017c703          	lbu	a4,1(a5)
 8002d00:	0785                	addi	a5,a5,1
 8002d02:	ff6d                	bnez	a4,8002cfc <strncat+0x42>
 8002d04:	962e                	add	a2,a2,a1
 8002d06:	00c58e63          	beq	a1,a2,8002d22 <strncat+0x68>
 8002d0a:	0005c703          	lbu	a4,0(a1)
 8002d0e:	0785                	addi	a5,a5,1
 8002d10:	0585                	addi	a1,a1,1
 8002d12:	fee78fa3          	sb	a4,-1(a5)
 8002d16:	c711                	beqz	a4,8002d22 <strncat+0x68>
 8002d18:	fec599e3          	bne	a1,a2,8002d0a <strncat+0x50>
 8002d1c:	00078023          	sb	zero,0(a5)
 8002d20:	8082                	ret
 8002d22:	8082                	ret

08002d24 <strncmp>:
 8002d24:	0c060763          	beqz	a2,8002df2 <strncmp+0xce>
 8002d28:	00b567b3          	or	a5,a0,a1
 8002d2c:	8b8d                	andi	a5,a5,3
 8002d2e:	ebc1                	bnez	a5,8002dbe <strncmp+0x9a>
 8002d30:	478d                	li	a5,3
 8002d32:	08c7f663          	bgeu	a5,a2,8002dbe <strncmp+0x9a>
 8002d36:	1171                	addi	sp,sp,-4
 8002d38:	feff02b7          	lui	t0,0xfeff0
 8002d3c:	80808337          	lui	t1,0x80808
 8002d40:	c022                	sw	s0,0(sp)
 8002d42:	eff28293          	addi	t0,t0,-257 # fefefeff <__e_f_text+0xf6fbd4d7>
 8002d46:	08030313          	addi	t1,t1,128 # 80808080 <__e_f_text+0x787d5658>
 8002d4a:	438d                	li	t2,3
 8002d4c:	a809                	j	8002d5e <strncmp+0x3a>
 8002d4e:	1671                	addi	a2,a2,-4
 8002d50:	ca29                	beqz	a2,8002da2 <strncmp+0x7e>
 8002d52:	04079863          	bnez	a5,8002da2 <strncmp+0x7e>
 8002d56:	0511                	addi	a0,a0,4
 8002d58:	0591                	addi	a1,a1,4
 8002d5a:	04c3f863          	bgeu	t2,a2,8002daa <strncmp+0x86>
 8002d5e:	4118                	lw	a4,0(a0)
 8002d60:	4194                	lw	a3,0(a1)
 8002d62:	005707b3          	add	a5,a4,t0
 8002d66:	fff74413          	not	s0,a4
 8002d6a:	8fe1                	and	a5,a5,s0
 8002d6c:	0067f7b3          	and	a5,a5,t1
 8002d70:	fcd70fe3          	beq	a4,a3,8002d4e <strncmp+0x2a>
 8002d74:	00054683          	lbu	a3,0(a0)
 8002d78:	0005c303          	lbu	t1,0(a1)
 8002d7c:	06669d63          	bne	a3,t1,8002df6 <strncmp+0xd2>
 8002d80:	872a                	mv	a4,a0
 8002d82:	a809                	j	8002d94 <strncmp+0x70>
 8002d84:	00074683          	lbu	a3,0(a4)
 8002d88:	0005c303          	lbu	t1,0(a1)
 8002d8c:	06669563          	bne	a3,t1,8002df6 <strncmp+0xd2>
 8002d90:	00078963          	beqz	a5,8002da2 <strncmp+0x7e>
 8002d94:	0705                	addi	a4,a4,1
 8002d96:	fff74793          	not	a5,a4
 8002d9a:	97b2                	add	a5,a5,a2
 8002d9c:	0585                	addi	a1,a1,1
 8002d9e:	97aa                	add	a5,a5,a0
 8002da0:	f2f5                	bnez	a3,8002d84 <strncmp+0x60>
 8002da2:	4402                	lw	s0,0(sp)
 8002da4:	4501                	li	a0,0
 8002da6:	0111                	addi	sp,sp,4
 8002da8:	8082                	ret
 8002daa:	00054683          	lbu	a3,0(a0)
 8002dae:	0005c303          	lbu	t1,0(a1)
 8002db2:	04d31263          	bne	t1,a3,8002df6 <strncmp+0xd2>
 8002db6:	4785                	li	a5,1
 8002db8:	fcf614e3          	bne	a2,a5,8002d80 <strncmp+0x5c>
 8002dbc:	b7dd                	j	8002da2 <strncmp+0x7e>
 8002dbe:	00054683          	lbu	a3,0(a0)
 8002dc2:	0005c303          	lbu	t1,0(a1)
 8002dc6:	02d31d63          	bne	t1,a3,8002e00 <strncmp+0xdc>
 8002dca:	4785                	li	a5,1
 8002dcc:	02f60363          	beq	a2,a5,8002df2 <strncmp+0xce>
 8002dd0:	872a                	mv	a4,a0
 8002dd2:	a809                	j	8002de4 <strncmp+0xc0>
 8002dd4:	00074683          	lbu	a3,0(a4)
 8002dd8:	0005c303          	lbu	t1,0(a1)
 8002ddc:	02669263          	bne	a3,t1,8002e00 <strncmp+0xdc>
 8002de0:	00078963          	beqz	a5,8002df2 <strncmp+0xce>
 8002de4:	0705                	addi	a4,a4,1
 8002de6:	fff74793          	not	a5,a4
 8002dea:	97b2                	add	a5,a5,a2
 8002dec:	0585                	addi	a1,a1,1
 8002dee:	97aa                	add	a5,a5,a0
 8002df0:	f2f5                	bnez	a3,8002dd4 <strncmp+0xb0>
 8002df2:	4501                	li	a0,0
 8002df4:	8082                	ret
 8002df6:	4402                	lw	s0,0(sp)
 8002df8:	40668533          	sub	a0,a3,t1
 8002dfc:	0111                	addi	sp,sp,4
 8002dfe:	8082                	ret
 8002e00:	40668533          	sub	a0,a3,t1
 8002e04:	8082                	ret

08002e06 <strncpy>:
 8002e06:	00a5e7b3          	or	a5,a1,a0
 8002e0a:	8b8d                	andi	a5,a5,3
 8002e0c:	872a                	mv	a4,a0
 8002e0e:	ebbd                	bnez	a5,8002e84 <strncpy+0x7e>
 8002e10:	478d                	li	a5,3
 8002e12:	06c7f963          	bgeu	a5,a2,8002e84 <strncpy+0x7e>
 8002e16:	1171                	addi	sp,sp,-4
 8002e18:	feff02b7          	lui	t0,0xfeff0
 8002e1c:	80808337          	lui	t1,0x80808
 8002e20:	c022                	sw	s0,0(sp)
 8002e22:	eff28293          	addi	t0,t0,-257 # fefefeff <__e_f_text+0xf6fbd4d7>
 8002e26:	08030313          	addi	t1,t1,128 # 80808080 <__e_f_text+0x787d5658>
 8002e2a:	438d                	li	t2,3
 8002e2c:	4194                	lw	a3,0(a1)
 8002e2e:	005687b3          	add	a5,a3,t0
 8002e32:	fff6c413          	not	s0,a3
 8002e36:	8fe1                	and	a5,a5,s0
 8002e38:	0067f7b3          	and	a5,a5,t1
 8002e3c:	e785                	bnez	a5,8002e64 <strncpy+0x5e>
 8002e3e:	c314                	sw	a3,0(a4)
 8002e40:	1671                	addi	a2,a2,-4
 8002e42:	0711                	addi	a4,a4,4
 8002e44:	0591                	addi	a1,a1,4
 8002e46:	fec3e3e3          	bltu	t2,a2,8002e2c <strncpy+0x26>
 8002e4a:	0585                	addi	a1,a1,1
 8002e4c:	00170793          	addi	a5,a4,1
 8002e50:	ce11                	beqz	a2,8002e6c <strncpy+0x66>
 8002e52:	fff5c683          	lbu	a3,-1(a1)
 8002e56:	fff60313          	addi	t1,a2,-1
 8002e5a:	fed78fa3          	sb	a3,-1(a5)
 8002e5e:	c2a9                	beqz	a3,8002ea0 <strncpy+0x9a>
 8002e60:	873e                	mv	a4,a5
 8002e62:	861a                	mv	a2,t1
 8002e64:	0585                	addi	a1,a1,1
 8002e66:	00170793          	addi	a5,a4,1
 8002e6a:	f665                	bnez	a2,8002e52 <strncpy+0x4c>
 8002e6c:	4402                	lw	s0,0(sp)
 8002e6e:	0111                	addi	sp,sp,4
 8002e70:	8082                	ret
 8002e72:	fff5c683          	lbu	a3,-1(a1)
 8002e76:	fff60313          	addi	t1,a2,-1
 8002e7a:	fed78fa3          	sb	a3,-1(a5)
 8002e7e:	ca81                	beqz	a3,8002e8e <strncpy+0x88>
 8002e80:	873e                	mv	a4,a5
 8002e82:	861a                	mv	a2,t1
 8002e84:	0585                	addi	a1,a1,1
 8002e86:	00170793          	addi	a5,a4,1
 8002e8a:	f665                	bnez	a2,8002e72 <strncpy+0x6c>
 8002e8c:	8082                	ret
 8002e8e:	963a                	add	a2,a2,a4
 8002e90:	02030363          	beqz	t1,8002eb6 <strncpy+0xb0>
 8002e94:	0785                	addi	a5,a5,1
 8002e96:	fe078fa3          	sb	zero,-1(a5)
 8002e9a:	fec79de3          	bne	a5,a2,8002e94 <strncpy+0x8e>
 8002e9e:	8082                	ret
 8002ea0:	963a                	add	a2,a2,a4
 8002ea2:	fc0305e3          	beqz	t1,8002e6c <strncpy+0x66>
 8002ea6:	0785                	addi	a5,a5,1
 8002ea8:	fe078fa3          	sb	zero,-1(a5)
 8002eac:	fec79de3          	bne	a5,a2,8002ea6 <strncpy+0xa0>
 8002eb0:	4402                	lw	s0,0(sp)
 8002eb2:	0111                	addi	sp,sp,4
 8002eb4:	8082                	ret
 8002eb6:	8082                	ret

08002eb8 <__ssvfscanf_r>:
 8002eb8:	b0c10113          	addi	sp,sp,-1268
 8002ebc:	777d                	lui	a4,0xfffff
 8002ebe:	4e812623          	sw	s0,1260(sp)
 8002ec2:	4e912423          	sw	s1,1256(sp)
 8002ec6:	4e112823          	sw	ra,1264(sp)
 8002eca:	4f410413          	addi	s0,sp,1268
 8002ece:	b5470713          	addi	a4,a4,-1196 # ffffeb54 <__e_f_text+0xf7fcc12c>
 8002ed2:	9722                	add	a4,a4,s0
 8002ed4:	c308                	sw	a0,0(a4)
 8002ed6:	00c59783          	lh	a5,12(a1)
 8002eda:	777d                	lui	a4,0xfffff
 8002edc:	b3c70713          	addi	a4,a4,-1220 # ffffeb3c <__e_f_text+0xf7fcc114>
 8002ee0:	9722                	add	a4,a4,s0
 8002ee2:	72fd                	lui	t0,0xfffff
 8002ee4:	c314                	sw	a3,0(a4)
 8002ee6:	01279713          	slli	a4,a5,0x12
 8002eea:	9116                	add	sp,sp,t0
 8002eec:	84ae                	mv	s1,a1
 8002eee:	00074b63          	bltz	a4,8002f04 <__ssvfscanf_r+0x4c>
 8002ef2:	51f8                	lw	a4,100(a1)
 8002ef4:	6689                	lui	a3,0x2
 8002ef6:	8fd5                	or	a5,a5,a3
 8002ef8:	76f9                	lui	a3,0xffffe
 8002efa:	16fd                	addi	a3,a3,-1
 8002efc:	8f75                	and	a4,a4,a3
 8002efe:	00f59623          	sh	a5,12(a1)
 8002f02:	d1f8                	sw	a4,100(a1)
 8002f04:	ff440693          	addi	a3,s0,-12
 8002f08:	00064783          	lbu	a5,0(a2)
 8002f0c:	777d                	lui	a4,0xfffff
 8002f0e:	9736                	add	a4,a4,a3
 8002f10:	76fd                	lui	a3,0xfffff
 8002f12:	b5868693          	addi	a3,a3,-1192 # ffffeb58 <__e_f_text+0xf7fcc130>
 8002f16:	b6f72e23          	sw	a5,-1156(a4) # ffffeb7c <__e_f_text+0xf7fcc154>
 8002f1a:	96a2                	add	a3,a3,s0
 8002f1c:	00160713          	addi	a4,a2,1
 8002f20:	c298                	sw	a4,0(a3)
 8002f22:	e399                	bnez	a5,8002f28 <__ssvfscanf_r+0x70>
 8002f24:	73d0206f          	j	8005e60 <__ssvfscanf_r+0x2fa8>
 8002f28:	777d                	lui	a4,0xfffff
 8002f2a:	b2470713          	addi	a4,a4,-1244 # ffffeb24 <__e_f_text+0xf7fcc0fc>
 8002f2e:	9722                	add	a4,a4,s0
 8002f30:	00072023          	sw	zero,0(a4)
 8002f34:	777d                	lui	a4,0xfffff
 8002f36:	b4870713          	addi	a4,a4,-1208 # ffffeb48 <__e_f_text+0xf7fcc120>
 8002f3a:	9722                	add	a4,a4,s0
 8002f3c:	00072023          	sw	zero,0(a4)
 8002f40:	777d                	lui	a4,0xfffff
 8002f42:	b2070713          	addi	a4,a4,-1248 # ffffeb20 <__e_f_text+0xf7fcc0f8>
 8002f46:	9722                	add	a4,a4,s0
 8002f48:	00072023          	sw	zero,0(a4)
 8002f4c:	777d                	lui	a4,0xfffff
 8002f4e:	b3070713          	addi	a4,a4,-1232 # ffffeb30 <__e_f_text+0xf7fcc108>
 8002f52:	9722                	add	a4,a4,s0
 8002f54:	00072023          	sw	zero,0(a4)
 8002f58:	777d                	lui	a4,0xfffff
 8002f5a:	b5070713          	addi	a4,a4,-1200 # ffffeb50 <__e_f_text+0xf7fcc128>
 8002f5e:	9722                	add	a4,a4,s0
 8002f60:	00072023          	sw	zero,0(a4)
 8002f64:	777d                	lui	a4,0xfffff
 8002f66:	b4470713          	addi	a4,a4,-1212 # ffffeb44 <__e_f_text+0xf7fcc11c>
 8002f6a:	9722                	add	a4,a4,s0
 8002f6c:	00072023          	sw	zero,0(a4)
 8002f70:	8326                	mv	t1,s1
 8002f72:	0002b717          	auipc	a4,0x2b
 8002f76:	eff70713          	addi	a4,a4,-257 # 802de71 <_ctype_+0x1>
 8002f7a:	973e                	add	a4,a4,a5
 8002f7c:	00074483          	lbu	s1,0(a4)
 8002f80:	88a1                	andi	s1,s1,8
 8002f82:	e0f1                	bnez	s1,8003046 <__ssvfscanf_r+0x18e>
 8002f84:	02500713          	li	a4,37
 8002f88:	04e79963          	bne	a5,a4,8002fda <__ssvfscanf_r+0x122>
 8002f8c:	77fd                	lui	a5,0xfffff
 8002f8e:	b5878793          	addi	a5,a5,-1192 # ffffeb58 <__e_f_text+0xf7fcc130>
 8002f92:	97a2                	add	a5,a5,s0
 8002f94:	439c                	lw	a5,0(a5)
 8002f96:	4701                	li	a4,0
 8002f98:	4281                	li	t0,0
 8002f9a:	0007c683          	lbu	a3,0(a5)
 8002f9e:	05500613          	li	a2,85
 8002fa2:	06c00393          	li	t2,108
 8002fa6:	75fd                	lui	a1,0xfffff
 8002fa8:	b5858593          	addi	a1,a1,-1192 # ffffeb58 <__e_f_text+0xf7fcc130>
 8002fac:	95a2                	add	a1,a1,s0
 8002fae:	418c                	lw	a1,0(a1)
 8002fb0:	fdb68793          	addi	a5,a3,-37
 8002fb4:	0ff7f793          	andi	a5,a5,255
 8002fb8:	0585                	addi	a1,a1,1
 8002fba:	22f66963          	bltu	a2,a5,80031ec <__ssvfscanf_r+0x334>
 8002fbe:	0002b517          	auipc	a0,0x2b
 8002fc2:	ac250513          	addi	a0,a0,-1342 # 802da80 <__clz_tab+0x100>
 8002fc6:	078a                	slli	a5,a5,0x2
 8002fc8:	97aa                	add	a5,a5,a0
 8002fca:	439c                	lw	a5,0(a5)
 8002fcc:	97aa                	add	a5,a5,a0
 8002fce:	8782                	jr	a5
 8002fd0:	77fd                	lui	a5,0xfffff
 8002fd2:	b5878793          	addi	a5,a5,-1192 # ffffeb58 <__e_f_text+0xf7fcc130>
 8002fd6:	97a2                	add	a5,a5,s0
 8002fd8:	c38c                	sw	a1,0(a5)
 8002fda:	00432783          	lw	a5,4(t1)
 8002fde:	12f05663          	blez	a5,800310a <__ssvfscanf_r+0x252>
 8002fe2:	777d                	lui	a4,0xfffff
 8002fe4:	b5870713          	addi	a4,a4,-1192 # ffffeb58 <__e_f_text+0xf7fcc130>
 8002fe8:	9722                	add	a4,a4,s0
 8002fea:	00032783          	lw	a5,0(t1)
 8002fee:	4318                	lw	a4,0(a4)
 8002ff0:	0007c683          	lbu	a3,0(a5)
 8002ff4:	fff74703          	lbu	a4,-1(a4)
 8002ff8:	0ee68463          	beq	a3,a4,80030e0 <__ssvfscanf_r+0x228>
 8002ffc:	77fd                	lui	a5,0xfffff
 8002ffe:	b4878793          	addi	a5,a5,-1208 # ffffeb48 <__e_f_text+0xf7fcc120>
 8003002:	97a2                	add	a5,a5,s0
 8003004:	439c                	lw	a5,0(a5)
 8003006:	cb99                	beqz	a5,800301c <__ssvfscanf_r+0x164>
 8003008:	77fd                	lui	a5,0xfffff
 800300a:	b4878793          	addi	a5,a5,-1208 # ffffeb48 <__e_f_text+0xf7fcc120>
 800300e:	97a2                	add	a5,a5,s0
 8003010:	439c                	lw	a5,0(a5)
 8003012:	439c                	lw	a5,0(a5)
 8003014:	c781                	beqz	a5,800301c <__ssvfscanf_r+0x164>
 8003016:	853e                	mv	a0,a5
 8003018:	789160ef          	jal	ra,8019fa0 <free>
 800301c:	77fd                	lui	a5,0xfffff
 800301e:	b4478793          	addi	a5,a5,-1212 # ffffeb44 <__e_f_text+0xf7fcc11c>
 8003022:	72fd                	lui	t0,0xfffff
 8003024:	97a2                	add	a5,a5,s0
 8003026:	b0c28293          	addi	t0,t0,-1268 # ffffeb0c <__e_f_text+0xf7fcc0e4>
 800302a:	4388                	lw	a0,0(a5)
 800302c:	00540133          	add	sp,s0,t0
 8003030:	6285                	lui	t0,0x1
 8003032:	9116                	add	sp,sp,t0
 8003034:	4f012083          	lw	ra,1264(sp)
 8003038:	4ec12403          	lw	s0,1260(sp)
 800303c:	4e812483          	lw	s1,1256(sp)
 8003040:	4f410113          	addi	sp,sp,1268
 8003044:	8082                	ret
 8003046:	777d                	lui	a4,0xfffff
 8003048:	00432783          	lw	a5,4(t1)
 800304c:	b5070713          	addi	a4,a4,-1200 # ffffeb50 <__e_f_text+0xf7fcc128>
 8003050:	9722                	add	a4,a4,s0
 8003052:	4304                	lw	s1,0(a4)
 8003054:	859a                	mv	a1,t1
 8003056:	02f05663          	blez	a5,8003082 <__ssvfscanf_r+0x1ca>
 800305a:	4198                	lw	a4,0(a1)
 800305c:	0002b697          	auipc	a3,0x2b
 8003060:	e1568693          	addi	a3,a3,-491 # 802de71 <_ctype_+0x1>
 8003064:	00074783          	lbu	a5,0(a4)
 8003068:	97b6                	add	a5,a5,a3
 800306a:	0007c783          	lbu	a5,0(a5)
 800306e:	8ba1                	andi	a5,a5,8
 8003070:	cb9d                	beqz	a5,80030a6 <__ssvfscanf_r+0x1ee>
 8003072:	41dc                	lw	a5,4(a1)
 8003074:	0705                	addi	a4,a4,1
 8003076:	c198                	sw	a4,0(a1)
 8003078:	17fd                	addi	a5,a5,-1
 800307a:	c1dc                	sw	a5,4(a1)
 800307c:	0485                	addi	s1,s1,1
 800307e:	fcf04ee3          	bgtz	a5,800305a <__ssvfscanf_r+0x1a2>
 8003082:	77fd                	lui	a5,0xfffff
 8003084:	b5078793          	addi	a5,a5,-1200 # ffffeb50 <__e_f_text+0xf7fcc128>
 8003088:	97a2                	add	a5,a5,s0
 800308a:	c38c                	sw	a1,0(a5)
 800308c:	77fd                	lui	a5,0xfffff
 800308e:	b5478793          	addi	a5,a5,-1196 # ffffeb54 <__e_f_text+0xf7fcc12c>
 8003092:	97a2                	add	a5,a5,s0
 8003094:	4388                	lw	a0,0(a5)
 8003096:	46e050ef          	jal	ra,8008504 <__ssrefill_r>
 800309a:	77fd                	lui	a5,0xfffff
 800309c:	b5078793          	addi	a5,a5,-1200 # ffffeb50 <__e_f_text+0xf7fcc128>
 80030a0:	97a2                	add	a5,a5,s0
 80030a2:	438c                	lw	a1,0(a5)
 80030a4:	d95d                	beqz	a0,800305a <__ssvfscanf_r+0x1a2>
 80030a6:	77fd                	lui	a5,0xfffff
 80030a8:	b5078793          	addi	a5,a5,-1200 # ffffeb50 <__e_f_text+0xf7fcc128>
 80030ac:	97a2                	add	a5,a5,s0
 80030ae:	c384                	sw	s1,0(a5)
 80030b0:	832e                	mv	t1,a1
 80030b2:	77fd                	lui	a5,0xfffff
 80030b4:	b5878793          	addi	a5,a5,-1192 # ffffeb58 <__e_f_text+0xf7fcc130>
 80030b8:	97a2                	add	a5,a5,s0
 80030ba:	4394                	lw	a3,0(a5)
 80030bc:	777d                	lui	a4,0xfffff
 80030be:	ff440613          	addi	a2,s0,-12
 80030c2:	0006c783          	lbu	a5,0(a3)
 80030c6:	9732                	add	a4,a4,a2
 80030c8:	b6f72e23          	sw	a5,-1156(a4) # ffffeb7c <__e_f_text+0xf7fcc154>
 80030cc:	00168713          	addi	a4,a3,1
 80030d0:	76fd                	lui	a3,0xfffff
 80030d2:	b5868693          	addi	a3,a3,-1192 # ffffeb58 <__e_f_text+0xf7fcc130>
 80030d6:	96a2                	add	a3,a3,s0
 80030d8:	c298                	sw	a4,0(a3)
 80030da:	e8079ce3          	bnez	a5,8002f72 <__ssvfscanf_r+0xba>
 80030de:	bf39                	j	8002ffc <__ssvfscanf_r+0x144>
 80030e0:	00432703          	lw	a4,4(t1)
 80030e4:	0785                	addi	a5,a5,1
 80030e6:	00f32023          	sw	a5,0(t1)
 80030ea:	fff70793          	addi	a5,a4,-1
 80030ee:	00f32223          	sw	a5,4(t1)
 80030f2:	77fd                	lui	a5,0xfffff
 80030f4:	b5078793          	addi	a5,a5,-1200 # ffffeb50 <__e_f_text+0xf7fcc128>
 80030f8:	97a2                	add	a5,a5,s0
 80030fa:	439c                	lw	a5,0(a5)
 80030fc:	777d                	lui	a4,0xfffff
 80030fe:	b5070713          	addi	a4,a4,-1200 # ffffeb50 <__e_f_text+0xf7fcc128>
 8003102:	0785                	addi	a5,a5,1
 8003104:	9722                	add	a4,a4,s0
 8003106:	c31c                	sw	a5,0(a4)
 8003108:	b76d                	j	80030b2 <__ssvfscanf_r+0x1fa>
 800310a:	77fd                	lui	a5,0xfffff
 800310c:	b4c78793          	addi	a5,a5,-1204 # ffffeb4c <__e_f_text+0xf7fcc124>
 8003110:	97a2                	add	a5,a5,s0
 8003112:	0067a023          	sw	t1,0(a5)
 8003116:	77fd                	lui	a5,0xfffff
 8003118:	b5478793          	addi	a5,a5,-1196 # ffffeb54 <__e_f_text+0xf7fcc12c>
 800311c:	97a2                	add	a5,a5,s0
 800311e:	4388                	lw	a0,0(a5)
 8003120:	859a                	mv	a1,t1
 8003122:	3e2050ef          	jal	ra,8008504 <__ssrefill_r>
 8003126:	77fd                	lui	a5,0xfffff
 8003128:	b4c78793          	addi	a5,a5,-1204 # ffffeb4c <__e_f_text+0xf7fcc124>
 800312c:	97a2                	add	a5,a5,s0
 800312e:	0007a303          	lw	t1,0(a5)
 8003132:	ea0508e3          	beqz	a0,8002fe2 <__ssvfscanf_r+0x12a>
 8003136:	849a                	mv	s1,t1
 8003138:	77fd                	lui	a5,0xfffff
 800313a:	b4478793          	addi	a5,a5,-1212 # ffffeb44 <__e_f_text+0xf7fcc11c>
 800313e:	97a2                	add	a5,a5,s0
 8003140:	439c                	lw	a5,0(a5)
 8003142:	c799                	beqz	a5,8003150 <__ssvfscanf_r+0x298>
 8003144:	00c4d783          	lhu	a5,12(s1)
 8003148:	0407f793          	andi	a5,a5,64
 800314c:	ea0788e3          	beqz	a5,8002ffc <__ssvfscanf_r+0x144>
 8003150:	77fd                	lui	a5,0xfffff
 8003152:	b4878793          	addi	a5,a5,-1208 # ffffeb48 <__e_f_text+0xf7fcc120>
 8003156:	97a2                	add	a5,a5,s0
 8003158:	439c                	lw	a5,0(a5)
 800315a:	e399                	bnez	a5,8003160 <__ssvfscanf_r+0x2a8>
 800315c:	1440306f          	j	80062a0 <__ssvfscanf_r+0x33e8>
 8003160:	77fd                	lui	a5,0xfffff
 8003162:	b4878793          	addi	a5,a5,-1208 # ffffeb48 <__e_f_text+0xf7fcc120>
 8003166:	97a2                	add	a5,a5,s0
 8003168:	439c                	lw	a5,0(a5)
 800316a:	439c                	lw	a5,0(a5)
 800316c:	777d                	lui	a4,0xfffff
 800316e:	b4870713          	addi	a4,a4,-1208 # ffffeb48 <__e_f_text+0xf7fcc120>
 8003172:	9722                	add	a4,a4,s0
 8003174:	4318                	lw	a4,0(a4)
 8003176:	76fd                	lui	a3,0xfffff
 8003178:	b5068693          	addi	a3,a3,-1200 # ffffeb50 <__e_f_text+0xf7fcc128>
 800317c:	00675703          	lhu	a4,6(a4)
 8003180:	96a2                	add	a3,a3,s0
 8003182:	c298                	sw	a4,0(a3)
 8003184:	cf29                	beqz	a4,80031de <__ssvfscanf_r+0x326>
 8003186:	777d                	lui	a4,0xfffff
 8003188:	b5470713          	addi	a4,a4,-1196 # ffffeb54 <__e_f_text+0xf7fcc12c>
 800318c:	9722                	add	a4,a4,s0
 800318e:	4481                	li	s1,0
 8003190:	c31c                	sw	a5,0(a4)
 8003192:	777d                	lui	a4,0xfffff
 8003194:	b5470713          	addi	a4,a4,-1196 # ffffeb54 <__e_f_text+0xf7fcc12c>
 8003198:	9722                	add	a4,a4,s0
 800319a:	4318                	lw	a4,0(a4)
 800319c:	00249793          	slli	a5,s1,0x2
 80031a0:	0485                	addi	s1,s1,1
 80031a2:	97ba                	add	a5,a5,a4
 80031a4:	4394                	lw	a3,0(a5)
 80031a6:	777d                	lui	a4,0xfffff
 80031a8:	b5870713          	addi	a4,a4,-1192 # ffffeb58 <__e_f_text+0xf7fcc130>
 80031ac:	4288                	lw	a0,0(a3)
 80031ae:	9722                	add	a4,a4,s0
 80031b0:	c31c                	sw	a5,0(a4)
 80031b2:	5ef160ef          	jal	ra,8019fa0 <free>
 80031b6:	77fd                	lui	a5,0xfffff
 80031b8:	b5878793          	addi	a5,a5,-1192 # ffffeb58 <__e_f_text+0xf7fcc130>
 80031bc:	97a2                	add	a5,a5,s0
 80031be:	439c                	lw	a5,0(a5)
 80031c0:	439c                	lw	a5,0(a5)
 80031c2:	0007a023          	sw	zero,0(a5)
 80031c6:	77fd                	lui	a5,0xfffff
 80031c8:	b5078793          	addi	a5,a5,-1200 # ffffeb50 <__e_f_text+0xf7fcc128>
 80031cc:	97a2                	add	a5,a5,s0
 80031ce:	439c                	lw	a5,0(a5)
 80031d0:	fcf491e3          	bne	s1,a5,8003192 <__ssvfscanf_r+0x2da>
 80031d4:	77fd                	lui	a5,0xfffff
 80031d6:	b5478793          	addi	a5,a5,-1196 # ffffeb54 <__e_f_text+0xf7fcc12c>
 80031da:	97a2                	add	a5,a5,s0
 80031dc:	439c                	lw	a5,0(a5)
 80031de:	76fd                	lui	a3,0xfffff
 80031e0:	b4468693          	addi	a3,a3,-1212 # ffffeb44 <__e_f_text+0xf7fcc11c>
 80031e4:	577d                	li	a4,-1
 80031e6:	96a2                	add	a3,a3,s0
 80031e8:	c298                	sw	a4,0(a3)
 80031ea:	b52d                	j	8003014 <__ssvfscanf_r+0x15c>
 80031ec:	77fd                	lui	a5,0xfffff
 80031ee:	b4878793          	addi	a5,a5,-1208 # ffffeb48 <__e_f_text+0xf7fcc120>
 80031f2:	97a2                	add	a5,a5,s0
 80031f4:	439c                	lw	a5,0(a5)
 80031f6:	e20783e3          	beqz	a5,800301c <__ssvfscanf_r+0x164>
 80031fa:	439c                	lw	a5,0(a5)
 80031fc:	bd21                	j	8003014 <__ssvfscanf_r+0x15c>
 80031fe:	08f77793          	andi	a5,a4,143
 8003202:	de079de3          	bnez	a5,8002ffc <__ssvfscanf_r+0x144>
 8003206:	00229793          	slli	a5,t0,0x2
 800320a:	92be                	add	t0,t0,a5
 800320c:	0286                	slli	t0,t0,0x1
 800320e:	9696                	add	a3,a3,t0
 8003210:	fd068293          	addi	t0,a3,-48
 8003214:	77fd                	lui	a5,0xfffff
 8003216:	b5878793          	addi	a5,a5,-1192 # ffffeb58 <__e_f_text+0xf7fcc130>
 800321a:	97a2                	add	a5,a5,s0
 800321c:	439c                	lw	a5,0(a5)
 800321e:	0017c683          	lbu	a3,1(a5)
 8003222:	77fd                	lui	a5,0xfffff
 8003224:	b5878793          	addi	a5,a5,-1192 # ffffeb58 <__e_f_text+0xf7fcc130>
 8003228:	97a2                	add	a5,a5,s0
 800322a:	c38c                	sw	a1,0(a5)
 800322c:	bbad                	j	8002fa6 <__ssvfscanf_r+0xee>
 800322e:	77fd                	lui	a5,0xfffff
 8003230:	b5878793          	addi	a5,a5,-1192 # ffffeb58 <__e_f_text+0xf7fcc130>
 8003234:	97a2                	add	a5,a5,s0
 8003236:	c38c                	sw	a1,0(a5)
 8003238:	4691                	li	a3,4
 800323a:	00432783          	lw	a5,4(t1)
 800323e:	36f05c63          	blez	a5,80035b6 <__ssvfscanf_r+0x6fe>
 8003242:	04077793          	andi	a5,a4,64
 8003246:	3e078263          	beqz	a5,800362a <__ssvfscanf_r+0x772>
 800324a:	478d                	li	a5,3
 800324c:	4cf68a63          	beq	a3,a5,8003720 <__ssvfscanf_r+0x868>
 8003250:	4791                	li	a5,4
 8003252:	00f69463          	bne	a3,a5,800325a <__ssvfscanf_r+0x3a2>
 8003256:	22a0106f          	j	8004480 <__ssvfscanf_r+0x15c8>
 800325a:	4785                	li	a5,1
 800325c:	5af681e3          	beq	a3,a5,8003ffe <__ssvfscanf_r+0x1146>
 8003260:	4789                	li	a5,2
 8003262:	1cf694e3          	bne	a3,a5,8003c2a <__ssvfscanf_r+0xd72>
 8003266:	00029363          	bnez	t0,800326c <__ssvfscanf_r+0x3b4>
 800326a:	52fd                	li	t0,-1
 800326c:	76fd                	lui	a3,0xfffff
 800326e:	b4c68693          	addi	a3,a3,-1204 # ffffeb4c <__e_f_text+0xf7fcc124>
 8003272:	01077793          	andi	a5,a4,16
 8003276:	96a2                	add	a3,a3,s0
 8003278:	00177493          	andi	s1,a4,1
 800327c:	c29c                	sw	a5,0(a3)
 800327e:	e099                	bnez	s1,8003284 <__ssvfscanf_r+0x3cc>
 8003280:	7d20106f          	j	8004a52 <__ssvfscanf_r+0x1b9a>
 8003284:	c399                	beqz	a5,800328a <__ssvfscanf_r+0x3d2>
 8003286:	1630206f          	j	8005be8 <__ssvfscanf_r+0x2d30>
 800328a:	77fd                	lui	a5,0xfffff
 800328c:	b3c78793          	addi	a5,a5,-1220 # ffffeb3c <__e_f_text+0xf7fcc114>
 8003290:	97a2                	add	a5,a5,s0
 8003292:	439c                	lw	a5,0(a5)
 8003294:	767d                	lui	a2,0xfffff
 8003296:	b4060613          	addi	a2,a2,-1216 # ffffeb40 <__e_f_text+0xf7fcc118>
 800329a:	4394                	lw	a3,0(a5)
 800329c:	9622                	add	a2,a2,s0
 800329e:	08077713          	andi	a4,a4,128
 80032a2:	c214                	sw	a3,0(a2)
 80032a4:	00478493          	addi	s1,a5,4
 80032a8:	77fd                	lui	a5,0xfffff
 80032aa:	e319                	bnez	a4,80032b0 <__ssvfscanf_r+0x3f8>
 80032ac:	3130206f          	j	8005dbe <__ssvfscanf_r+0x2f06>
 80032b0:	b3878793          	addi	a5,a5,-1224 # ffffeb38 <__e_f_text+0xf7fcc110>
 80032b4:	97a2                	add	a5,a5,s0
 80032b6:	0067a023          	sw	t1,0(a5)
 80032ba:	77fd                	lui	a5,0xfffff
 80032bc:	b3c78793          	addi	a5,a5,-1220 # ffffeb3c <__e_f_text+0xf7fcc114>
 80032c0:	97a2                	add	a5,a5,s0
 80032c2:	0057a023          	sw	t0,0(a5)
 80032c6:	d29d                	beqz	a3,80031ec <__ssvfscanf_r+0x334>
 80032c8:	08000513          	li	a0,128
 80032cc:	4c7160ef          	jal	ra,8019f92 <malloc>
 80032d0:	777d                	lui	a4,0xfffff
 80032d2:	b3c70713          	addi	a4,a4,-1220 # ffffeb3c <__e_f_text+0xf7fcc114>
 80032d6:	9722                	add	a4,a4,s0
 80032d8:	00072283          	lw	t0,0(a4)
 80032dc:	777d                	lui	a4,0xfffff
 80032de:	b3870713          	addi	a4,a4,-1224 # ffffeb38 <__e_f_text+0xf7fcc110>
 80032e2:	9722                	add	a4,a4,s0
 80032e4:	00072303          	lw	t1,0(a4)
 80032e8:	87aa                	mv	a5,a0
 80032ea:	e60503e3          	beqz	a0,8003150 <__ssvfscanf_r+0x298>
 80032ee:	777d                	lui	a4,0xfffff
 80032f0:	b4870713          	addi	a4,a4,-1208 # ffffeb48 <__e_f_text+0xf7fcc120>
 80032f4:	9722                	add	a4,a4,s0
 80032f6:	75fd                	lui	a1,0xfffff
 80032f8:	4310                	lw	a2,0(a4)
 80032fa:	b4058593          	addi	a1,a1,-1216 # ffffeb40 <__e_f_text+0xf7fcc118>
 80032fe:	95a2                	add	a1,a1,s0
 8003300:	418c                	lw	a1,0(a1)
 8003302:	00665703          	lhu	a4,6(a2)
 8003306:	00465683          	lhu	a3,4(a2)
 800330a:	c188                	sw	a0,0(a1)
 800330c:	00d76463          	bltu	a4,a3,8003314 <__ssvfscanf_r+0x45c>
 8003310:	23a0206f          	j	800554a <__ssvfscanf_r+0x2692>
 8003314:	4208                	lw	a0,0(a2)
 8003316:	00271693          	slli	a3,a4,0x2
 800331a:	9536                	add	a0,a0,a3
 800331c:	76fd                	lui	a3,0xfffff
 800331e:	b4868693          	addi	a3,a3,-1208 # ffffeb48 <__e_f_text+0xf7fcc120>
 8003322:	96a2                	add	a3,a3,s0
 8003324:	4294                	lw	a3,0(a3)
 8003326:	0705                	addi	a4,a4,1
 8003328:	00e69323          	sh	a4,6(a3)
 800332c:	777d                	lui	a4,0xfffff
 800332e:	b4070713          	addi	a4,a4,-1216 # ffffeb40 <__e_f_text+0xf7fcc118>
 8003332:	9722                	add	a4,a4,s0
 8003334:	4318                	lw	a4,0(a4)
 8003336:	76fd                	lui	a3,0xfffff
 8003338:	b2c68693          	addi	a3,a3,-1236 # ffffeb2c <__e_f_text+0xf7fcc104>
 800333c:	c118                	sw	a4,0(a0)
 800333e:	777d                	lui	a4,0xfffff
 8003340:	b3c70713          	addi	a4,a4,-1220 # ffffeb3c <__e_f_text+0xf7fcc114>
 8003344:	9722                	add	a4,a4,s0
 8003346:	c304                	sw	s1,0(a4)
 8003348:	777d                	lui	a4,0xfffff
 800334a:	b2870713          	addi	a4,a4,-1240 # ffffeb28 <__e_f_text+0xf7fcc100>
 800334e:	9722                	add	a4,a4,s0
 8003350:	c31c                	sw	a5,0(a4)
 8003352:	96a2                	add	a3,a3,s0
 8003354:	02000713          	li	a4,32
 8003358:	c298                	sw	a4,0(a3)
 800335a:	00032703          	lw	a4,0(t1)
 800335e:	0002b697          	auipc	a3,0x2b
 8003362:	b1368693          	addi	a3,a3,-1261 # 802de71 <_ctype_+0x1>
 8003366:	00074703          	lbu	a4,0(a4)
 800336a:	9736                	add	a4,a4,a3
 800336c:	00074703          	lbu	a4,0(a4)
 8003370:	8b21                	andi	a4,a4,8
 8003372:	c319                	beqz	a4,8003378 <__ssvfscanf_r+0x4c0>
 8003374:	5a80206f          	j	800591c <__ssvfscanf_r+0x2a64>
 8003378:	777d                	lui	a4,0xfffff
 800337a:	b1c70713          	addi	a4,a4,-1252 # ffffeb1c <__e_f_text+0xf7fcc0f4>
 800337e:	9722                	add	a4,a4,s0
 8003380:	00572023          	sw	t0,0(a4)
 8003384:	777d                	lui	a4,0xfffff
 8003386:	b3870713          	addi	a4,a4,-1224 # ffffeb38 <__e_f_text+0xf7fcc110>
 800338a:	4481                	li	s1,0
 800338c:	9722                	add	a4,a4,s0
 800338e:	86a6                	mv	a3,s1
 8003390:	c31c                	sw	a5,0(a4)
 8003392:	849a                	mv	s1,t1
 8003394:	77fd                	lui	a5,0xfffff
 8003396:	b3478793          	addi	a5,a5,-1228 # ffffeb34 <__e_f_text+0xf7fcc10c>
 800339a:	97a2                	add	a5,a5,s0
 800339c:	c394                	sw	a3,0(a5)
 800339e:	176030ef          	jal	ra,8006514 <__locale_mb_cur_max>
 80033a2:	77fd                	lui	a5,0xfffff
 80033a4:	b3478793          	addi	a5,a5,-1228 # ffffeb34 <__e_f_text+0xf7fcc10c>
 80033a8:	97a2                	add	a5,a5,s0
 80033aa:	4394                	lw	a3,0(a5)
 80033ac:	d8d506e3          	beq	a0,a3,8003138 <__ssvfscanf_r+0x280>
 80033b0:	40d8                	lw	a4,4(s1)
 80033b2:	409c                	lw	a5,0(s1)
 80033b4:	757d                	lui	a0,0xfffff
 80033b6:	ff450613          	addi	a2,a0,-12 # ffffeff4 <__e_f_text+0xf7fcc5cc>
 80033ba:	177d                	addi	a4,a4,-1
 80033bc:	9622                	add	a2,a2,s0
 80033be:	0007c583          	lbu	a1,0(a5)
 80033c2:	9636                	add	a2,a2,a3
 80033c4:	c0d8                	sw	a4,4(s1)
 80033c6:	00168713          	addi	a4,a3,1
 80033ca:	76fd                	lui	a3,0xfffff
 80033cc:	b3468693          	addi	a3,a3,-1228 # ffffeb34 <__e_f_text+0xf7fcc10c>
 80033d0:	96a2                	add	a3,a3,s0
 80033d2:	c298                	sw	a4,0(a3)
 80033d4:	777d                	lui	a4,0xfffff
 80033d6:	b2070713          	addi	a4,a4,-1248 # ffffeb20 <__e_f_text+0xf7fcc0f8>
 80033da:	9722                	add	a4,a4,s0
 80033dc:	4318                	lw	a4,0(a4)
 80033de:	0785                	addi	a5,a5,1
 80033e0:	c09c                	sw	a5,0(s1)
 80033e2:	c8b60823          	sb	a1,-880(a2)
 80033e6:	478d                	li	a5,3
 80033e8:	00f71963          	bne	a4,a5,80033fa <__ssvfscanf_r+0x542>
 80033ec:	b7c50793          	addi	a5,a0,-1156
 80033f0:	97a2                	add	a5,a5,s0
 80033f2:	4398                	lw	a4,0(a5)
 80033f4:	4791                	li	a5,4
 80033f6:	00f70c63          	beq	a4,a5,800340e <__ssvfscanf_r+0x556>
 80033fa:	77fd                	lui	a5,0xfffff
 80033fc:	b8878513          	addi	a0,a5,-1144 # ffffeb88 <__e_f_text+0xf7fcc160>
 8003400:	ff440793          	addi	a5,s0,-12
 8003404:	4621                	li	a2,8
 8003406:	4581                	li	a1,0
 8003408:	953e                	add	a0,a0,a5
 800340a:	e16ff0ef          	jal	ra,8002a20 <memset>
 800340e:	77fd                	lui	a5,0xfffff
 8003410:	b8878713          	addi	a4,a5,-1144 # ffffeb88 <__e_f_text+0xf7fcc160>
 8003414:	c9078613          	addi	a2,a5,-880
 8003418:	ff440793          	addi	a5,s0,-12
 800341c:	973e                	add	a4,a4,a5
 800341e:	77fd                	lui	a5,0xfffff
 8003420:	b3478793          	addi	a5,a5,-1228 # ffffeb34 <__e_f_text+0xf7fcc10c>
 8003424:	97a2                	add	a5,a5,s0
 8003426:	4394                	lw	a3,0(a5)
 8003428:	ff440793          	addi	a5,s0,-12
 800342c:	963e                	add	a2,a2,a5
 800342e:	77fd                	lui	a5,0xfffff
 8003430:	b3878793          	addi	a5,a5,-1224 # ffffeb38 <__e_f_text+0xf7fcc110>
 8003434:	97a2                	add	a5,a5,s0
 8003436:	438c                	lw	a1,0(a5)
 8003438:	77fd                	lui	a5,0xfffff
 800343a:	b5478793          	addi	a5,a5,-1196 # ffffeb54 <__e_f_text+0xf7fcc12c>
 800343e:	97a2                	add	a5,a5,s0
 8003440:	4388                	lw	a0,0(a5)
 8003442:	172030ef          	jal	ra,80065b4 <_mbrtowc_r>
 8003446:	77fd                	lui	a5,0xfffff
 8003448:	b2078793          	addi	a5,a5,-1248 # ffffeb20 <__e_f_text+0xf7fcc0f8>
 800344c:	97a2                	add	a5,a5,s0
 800344e:	c388                	sw	a0,0(a5)
 8003450:	57fd                	li	a5,-1
 8003452:	cef503e3          	beq	a0,a5,8003138 <__ssvfscanf_r+0x280>
 8003456:	c119                	beqz	a0,800345c <__ssvfscanf_r+0x5a4>
 8003458:	0710206f          	j	8005cc8 <__ssvfscanf_r+0x2e10>
 800345c:	77fd                	lui	a5,0xfffff
 800345e:	b3878793          	addi	a5,a5,-1224 # ffffeb38 <__e_f_text+0xf7fcc110>
 8003462:	97a2                	add	a5,a5,s0
 8003464:	439c                	lw	a5,0(a5)
 8003466:	0007a023          	sw	zero,0(a5)
 800346a:	034030ef          	jal	ra,800649e <iswspace>
 800346e:	77fd                	lui	a5,0xfffff
 8003470:	c119                	beqz	a0,8003476 <__ssvfscanf_r+0x5be>
 8003472:	44b0206f          	j	80060bc <__ssvfscanf_r+0x3204>
 8003476:	777d                	lui	a4,0xfffff
 8003478:	b5078793          	addi	a5,a5,-1200 # ffffeb50 <__e_f_text+0xf7fcc128>
 800347c:	b3470713          	addi	a4,a4,-1228 # ffffeb34 <__e_f_text+0xf7fcc10c>
 8003480:	97a2                	add	a5,a5,s0
 8003482:	9722                	add	a4,a4,s0
 8003484:	4318                	lw	a4,0(a4)
 8003486:	439c                	lw	a5,0(a5)
 8003488:	97ba                	add	a5,a5,a4
 800348a:	777d                	lui	a4,0xfffff
 800348c:	b5070713          	addi	a4,a4,-1200 # ffffeb50 <__e_f_text+0xf7fcc128>
 8003490:	9722                	add	a4,a4,s0
 8003492:	c31c                	sw	a5,0(a4)
 8003494:	77fd                	lui	a5,0xfffff
 8003496:	b1c78793          	addi	a5,a5,-1252 # ffffeb1c <__e_f_text+0xf7fcc0f4>
 800349a:	97a2                	add	a5,a5,s0
 800349c:	439c                	lw	a5,0(a5)
 800349e:	777d                	lui	a4,0xfffff
 80034a0:	b1c70713          	addi	a4,a4,-1252 # ffffeb1c <__e_f_text+0xf7fcc0f4>
 80034a4:	17fd                	addi	a5,a5,-1
 80034a6:	9722                	add	a4,a4,s0
 80034a8:	c31c                	sw	a5,0(a4)
 80034aa:	77fd                	lui	a5,0xfffff
 80034ac:	b4c78793          	addi	a5,a5,-1204 # ffffeb4c <__e_f_text+0xf7fcc124>
 80034b0:	97a2                	add	a5,a5,s0
 80034b2:	439c                	lw	a5,0(a5)
 80034b4:	c399                	beqz	a5,80034ba <__ssvfscanf_r+0x602>
 80034b6:	35f0206f          	j	8006014 <__ssvfscanf_r+0x315c>
 80034ba:	77fd                	lui	a5,0xfffff
 80034bc:	b3878793          	addi	a5,a5,-1224 # ffffeb38 <__e_f_text+0xf7fcc110>
 80034c0:	97a2                	add	a5,a5,s0
 80034c2:	439c                	lw	a5,0(a5)
 80034c4:	777d                	lui	a4,0xfffff
 80034c6:	b3870713          	addi	a4,a4,-1224 # ffffeb38 <__e_f_text+0xf7fcc110>
 80034ca:	9722                	add	a4,a4,s0
 80034cc:	0791                	addi	a5,a5,4
 80034ce:	c31c                	sw	a5,0(a4)
 80034d0:	777d                	lui	a4,0xfffff
 80034d2:	b4070713          	addi	a4,a4,-1216 # ffffeb40 <__e_f_text+0xf7fcc118>
 80034d6:	9722                	add	a4,a4,s0
 80034d8:	4318                	lw	a4,0(a4)
 80034da:	e319                	bnez	a4,80034e0 <__ssvfscanf_r+0x628>
 80034dc:	3390206f          	j	8006014 <__ssvfscanf_r+0x315c>
 80034e0:	76fd                	lui	a3,0xfffff
 80034e2:	777d                	lui	a4,0xfffff
 80034e4:	b3468693          	addi	a3,a3,-1228 # ffffeb34 <__e_f_text+0xf7fcc10c>
 80034e8:	96a2                	add	a3,a3,s0
 80034ea:	b2870713          	addi	a4,a4,-1240 # ffffeb28 <__e_f_text+0xf7fcc100>
 80034ee:	0006a023          	sw	zero,0(a3)
 80034f2:	9722                	add	a4,a4,s0
 80034f4:	76fd                	lui	a3,0xfffff
 80034f6:	4318                	lw	a4,0(a4)
 80034f8:	b2c68693          	addi	a3,a3,-1236 # ffffeb2c <__e_f_text+0xf7fcc104>
 80034fc:	96a2                	add	a3,a3,s0
 80034fe:	4294                	lw	a3,0(a3)
 8003500:	8f99                	sub	a5,a5,a4
 8003502:	4027d713          	srai	a4,a5,0x2
 8003506:	00d76463          	bltu	a4,a3,800350e <__ssvfscanf_r+0x656>
 800350a:	5a70206f          	j	80062b0 <__ssvfscanf_r+0x33f8>
 800350e:	40dc                	lw	a5,4(s1)
 8003510:	00f04463          	bgtz	a5,8003518 <__ssvfscanf_r+0x660>
 8003514:	3450206f          	j	8006058 <__ssvfscanf_r+0x31a0>
 8003518:	409c                	lw	a5,0(s1)
 800351a:	0002b717          	auipc	a4,0x2b
 800351e:	95770713          	addi	a4,a4,-1705 # 802de71 <_ctype_+0x1>
 8003522:	0007c783          	lbu	a5,0(a5)
 8003526:	97ba                	add	a5,a5,a4
 8003528:	0007c783          	lbu	a5,0(a5)
 800352c:	8ba1                	andi	a5,a5,8
 800352e:	c399                	beqz	a5,8003534 <__ssvfscanf_r+0x67c>
 8003530:	3e00206f          	j	8005910 <__ssvfscanf_r+0x2a58>
 8003534:	77fd                	lui	a5,0xfffff
 8003536:	b1c78793          	addi	a5,a5,-1252 # ffffeb1c <__e_f_text+0xf7fcc0f4>
 800353a:	97a2                	add	a5,a5,s0
 800353c:	439c                	lw	a5,0(a5)
 800353e:	e399                	bnez	a5,8003544 <__ssvfscanf_r+0x68c>
 8003540:	3d00206f          	j	8005910 <__ssvfscanf_r+0x2a58>
 8003544:	77fd                	lui	a5,0xfffff
 8003546:	b3478793          	addi	a5,a5,-1228 # ffffeb34 <__e_f_text+0xf7fcc10c>
 800354a:	97a2                	add	a5,a5,s0
 800354c:	4394                	lw	a3,0(a5)
 800354e:	b599                	j	8003394 <__ssvfscanf_r+0x4dc>
 8003550:	00f77793          	andi	a5,a4,15
 8003554:	aa0794e3          	bnez	a5,8002ffc <__ssvfscanf_r+0x144>
 8003558:	77fd                	lui	a5,0xfffff
 800355a:	b5878793          	addi	a5,a5,-1192 # ffffeb58 <__e_f_text+0xf7fcc130>
 800355e:	97a2                	add	a5,a5,s0
 8003560:	439c                	lw	a5,0(a5)
 8003562:	00276713          	ori	a4,a4,2
 8003566:	0017c683          	lbu	a3,1(a5)
 800356a:	77fd                	lui	a5,0xfffff
 800356c:	b5878793          	addi	a5,a5,-1192 # ffffeb58 <__e_f_text+0xf7fcc130>
 8003570:	97a2                	add	a5,a5,s0
 8003572:	c38c                	sw	a1,0(a5)
 8003574:	bc0d                	j	8002fa6 <__ssvfscanf_r+0xee>
 8003576:	00f77793          	andi	a5,a4,15
 800357a:	c8078de3          	beqz	a5,8003214 <__ssvfscanf_r+0x35c>
 800357e:	bcbd                	j	8002ffc <__ssvfscanf_r+0x144>
 8003580:	20076713          	ori	a4,a4,512
 8003584:	77fd                	lui	a5,0xfffff
 8003586:	b5878793          	addi	a5,a5,-1192 # ffffeb58 <__e_f_text+0xf7fcc130>
 800358a:	76fd                	lui	a3,0xfffff
 800358c:	97a2                	add	a5,a5,s0
 800358e:	b2468693          	addi	a3,a3,-1244 # ffffeb24 <__e_f_text+0xf7fcc0fc>
 8003592:	c38c                	sw	a1,0(a5)
 8003594:	96a2                	add	a3,a3,s0
 8003596:	00005797          	auipc	a5,0x5
 800359a:	c5478793          	addi	a5,a5,-940 # 80081ea <_strtoul_r>
 800359e:	c29c                	sw	a5,0(a3)
 80035a0:	47c1                	li	a5,16
 80035a2:	76fd                	lui	a3,0xfffff
 80035a4:	b3068693          	addi	a3,a3,-1232 # ffffeb30 <__e_f_text+0xf7fcc108>
 80035a8:	96a2                	add	a3,a3,s0
 80035aa:	c29c                	sw	a5,0(a3)
 80035ac:	00432783          	lw	a5,4(t1)
 80035b0:	468d                	li	a3,3
 80035b2:	c8f048e3          	bgtz	a5,8003242 <__ssvfscanf_r+0x38a>
 80035b6:	77fd                	lui	a5,0xfffff
 80035b8:	b3478793          	addi	a5,a5,-1228 # ffffeb34 <__e_f_text+0xf7fcc10c>
 80035bc:	97a2                	add	a5,a5,s0
 80035be:	0057a023          	sw	t0,0(a5)
 80035c2:	77fd                	lui	a5,0xfffff
 80035c4:	b3878793          	addi	a5,a5,-1224 # ffffeb38 <__e_f_text+0xf7fcc110>
 80035c8:	97a2                	add	a5,a5,s0
 80035ca:	c394                	sw	a3,0(a5)
 80035cc:	77fd                	lui	a5,0xfffff
 80035ce:	b4078793          	addi	a5,a5,-1216 # ffffeb40 <__e_f_text+0xf7fcc118>
 80035d2:	97a2                	add	a5,a5,s0
 80035d4:	c398                	sw	a4,0(a5)
 80035d6:	77fd                	lui	a5,0xfffff
 80035d8:	b4c78793          	addi	a5,a5,-1204 # ffffeb4c <__e_f_text+0xf7fcc124>
 80035dc:	97a2                	add	a5,a5,s0
 80035de:	0067a023          	sw	t1,0(a5)
 80035e2:	77fd                	lui	a5,0xfffff
 80035e4:	b5478793          	addi	a5,a5,-1196 # ffffeb54 <__e_f_text+0xf7fcc12c>
 80035e8:	97a2                	add	a5,a5,s0
 80035ea:	4388                	lw	a0,0(a5)
 80035ec:	859a                	mv	a1,t1
 80035ee:	717040ef          	jal	ra,8008504 <__ssrefill_r>
 80035f2:	77fd                	lui	a5,0xfffff
 80035f4:	b4c78793          	addi	a5,a5,-1204 # ffffeb4c <__e_f_text+0xf7fcc124>
 80035f8:	97a2                	add	a5,a5,s0
 80035fa:	0007a303          	lw	t1,0(a5)
 80035fe:	77fd                	lui	a5,0xfffff
 8003600:	b4078793          	addi	a5,a5,-1216 # ffffeb40 <__e_f_text+0xf7fcc118>
 8003604:	97a2                	add	a5,a5,s0
 8003606:	4398                	lw	a4,0(a5)
 8003608:	77fd                	lui	a5,0xfffff
 800360a:	b3878793          	addi	a5,a5,-1224 # ffffeb38 <__e_f_text+0xf7fcc110>
 800360e:	97a2                	add	a5,a5,s0
 8003610:	4394                	lw	a3,0(a5)
 8003612:	77fd                	lui	a5,0xfffff
 8003614:	b3478793          	addi	a5,a5,-1228 # ffffeb34 <__e_f_text+0xf7fcc10c>
 8003618:	97a2                	add	a5,a5,s0
 800361a:	0007a283          	lw	t0,0(a5)
 800361e:	b0051ce3          	bnez	a0,8003136 <__ssvfscanf_r+0x27e>
 8003622:	04077793          	andi	a5,a4,64
 8003626:	c20792e3          	bnez	a5,800324a <__ssvfscanf_r+0x392>
 800362a:	00032603          	lw	a2,0(t1)
 800362e:	0002b597          	auipc	a1,0x2b
 8003632:	84358593          	addi	a1,a1,-1981 # 802de71 <_ctype_+0x1>
 8003636:	00064783          	lbu	a5,0(a2)
 800363a:	97ae                	add	a5,a5,a1
 800363c:	0007c783          	lbu	a5,0(a5)
 8003640:	8ba1                	andi	a5,a5,8
 8003642:	c00784e3          	beqz	a5,800324a <__ssvfscanf_r+0x392>
 8003646:	77fd                	lui	a5,0xfffff
 8003648:	b4c78793          	addi	a5,a5,-1204 # ffffeb4c <__e_f_text+0xf7fcc124>
 800364c:	97a2                	add	a5,a5,s0
 800364e:	c398                	sw	a4,0(a5)
 8003650:	77fd                	lui	a5,0xfffff
 8003652:	b4078793          	addi	a5,a5,-1216 # ffffeb40 <__e_f_text+0xf7fcc118>
 8003656:	97a2                	add	a5,a5,s0
 8003658:	c394                	sw	a3,0(a5)
 800365a:	77fd                	lui	a5,0xfffff
 800365c:	b3878793          	addi	a5,a5,-1224 # ffffeb38 <__e_f_text+0xf7fcc110>
 8003660:	97a2                	add	a5,a5,s0
 8003662:	0057a023          	sw	t0,0(a5)
 8003666:	77fd                	lui	a5,0xfffff
 8003668:	b3478793          	addi	a5,a5,-1228 # ffffeb34 <__e_f_text+0xf7fcc10c>
 800366c:	97a2                	add	a5,a5,s0
 800366e:	c384                	sw	s1,0(a5)
 8003670:	77fd                	lui	a5,0xfffff
 8003672:	b5078793          	addi	a5,a5,-1200 # ffffeb50 <__e_f_text+0xf7fcc128>
 8003676:	97a2                	add	a5,a5,s0
 8003678:	4384                	lw	s1,0(a5)
 800367a:	859a                	mv	a1,t1
 800367c:	a831                	j	8003698 <__ssvfscanf_r+0x7e0>
 800367e:	0605                	addi	a2,a2,1
 8003680:	c190                	sw	a2,0(a1)
 8003682:	00064783          	lbu	a5,0(a2)
 8003686:	0002a717          	auipc	a4,0x2a
 800368a:	7eb70713          	addi	a4,a4,2027 # 802de71 <_ctype_+0x1>
 800368e:	97ba                	add	a5,a5,a4
 8003690:	0007c783          	lbu	a5,0(a5)
 8003694:	8ba1                	andi	a5,a5,8
 8003696:	c7b9                	beqz	a5,80036e4 <__ssvfscanf_r+0x82c>
 8003698:	41dc                	lw	a5,4(a1)
 800369a:	0485                	addi	s1,s1,1
 800369c:	17fd                	addi	a5,a5,-1
 800369e:	c1dc                	sw	a5,4(a1)
 80036a0:	fcf04fe3          	bgtz	a5,800367e <__ssvfscanf_r+0x7c6>
 80036a4:	77fd                	lui	a5,0xfffff
 80036a6:	b5078793          	addi	a5,a5,-1200 # ffffeb50 <__e_f_text+0xf7fcc128>
 80036aa:	97a2                	add	a5,a5,s0
 80036ac:	c38c                	sw	a1,0(a5)
 80036ae:	77fd                	lui	a5,0xfffff
 80036b0:	b5478793          	addi	a5,a5,-1196 # ffffeb54 <__e_f_text+0xf7fcc12c>
 80036b4:	97a2                	add	a5,a5,s0
 80036b6:	4388                	lw	a0,0(a5)
 80036b8:	64d040ef          	jal	ra,8008504 <__ssrefill_r>
 80036bc:	77fd                	lui	a5,0xfffff
 80036be:	b5078793          	addi	a5,a5,-1200 # ffffeb50 <__e_f_text+0xf7fcc128>
 80036c2:	97a2                	add	a5,a5,s0
 80036c4:	438c                	lw	a1,0(a5)
 80036c6:	c119                	beqz	a0,80036cc <__ssvfscanf_r+0x814>
 80036c8:	2b50106f          	j	800517c <__ssvfscanf_r+0x22c4>
 80036cc:	4190                	lw	a2,0(a1)
 80036ce:	0002a717          	auipc	a4,0x2a
 80036d2:	7a370713          	addi	a4,a4,1955 # 802de71 <_ctype_+0x1>
 80036d6:	00064783          	lbu	a5,0(a2)
 80036da:	97ba                	add	a5,a5,a4
 80036dc:	0007c783          	lbu	a5,0(a5)
 80036e0:	8ba1                	andi	a5,a5,8
 80036e2:	fbdd                	bnez	a5,8003698 <__ssvfscanf_r+0x7e0>
 80036e4:	77fd                	lui	a5,0xfffff
 80036e6:	b4c78793          	addi	a5,a5,-1204 # ffffeb4c <__e_f_text+0xf7fcc124>
 80036ea:	97a2                	add	a5,a5,s0
 80036ec:	4398                	lw	a4,0(a5)
 80036ee:	77fd                	lui	a5,0xfffff
 80036f0:	b5078793          	addi	a5,a5,-1200 # ffffeb50 <__e_f_text+0xf7fcc128>
 80036f4:	97a2                	add	a5,a5,s0
 80036f6:	c384                	sw	s1,0(a5)
 80036f8:	77fd                	lui	a5,0xfffff
 80036fa:	b4078793          	addi	a5,a5,-1216 # ffffeb40 <__e_f_text+0xf7fcc118>
 80036fe:	97a2                	add	a5,a5,s0
 8003700:	4394                	lw	a3,0(a5)
 8003702:	77fd                	lui	a5,0xfffff
 8003704:	b3878793          	addi	a5,a5,-1224 # ffffeb38 <__e_f_text+0xf7fcc110>
 8003708:	97a2                	add	a5,a5,s0
 800370a:	0007a283          	lw	t0,0(a5)
 800370e:	77fd                	lui	a5,0xfffff
 8003710:	b3478793          	addi	a5,a5,-1228 # ffffeb34 <__e_f_text+0xf7fcc10c>
 8003714:	97a2                	add	a5,a5,s0
 8003716:	4384                	lw	s1,0(a5)
 8003718:	478d                	li	a5,3
 800371a:	832e                	mv	t1,a1
 800371c:	b2f69ae3          	bne	a3,a5,8003250 <__ssvfscanf_r+0x398>
 8003720:	75fd                	lui	a1,0xfffff
 8003722:	b2c58593          	addi	a1,a1,-1236 # ffffeb2c <__e_f_text+0xf7fcc104>
 8003726:	6685                	lui	a3,0x1
 8003728:	95a2                	add	a1,a1,s0
 800372a:	fff28793          	addi	a5,t0,-1 # fff <__min_heap_size+0x7ff>
 800372e:	36c68613          	addi	a2,a3,876 # 136c <__min_heap_size+0xb6c>
 8003732:	0005a023          	sw	zero,0(a1)
 8003736:	00f67963          	bgeu	a2,a5,8003748 <__ssvfscanf_r+0x890>
 800373a:	77fd                	lui	a5,0xfffff
 800373c:	c9378793          	addi	a5,a5,-877 # ffffec93 <__e_f_text+0xf7fcc26b>
 8003740:	9796                	add	a5,a5,t0
 8003742:	c19c                	sw	a5,0(a1)
 8003744:	36d68293          	addi	t0,a3,877
 8003748:	6785                	lui	a5,0x1
 800374a:	d8078793          	addi	a5,a5,-640 # d80 <__min_heap_size+0x580>
 800374e:	8f5d                	or	a4,a4,a5
 8003750:	77fd                	lui	a5,0xfffff
 8003752:	b4c78793          	addi	a5,a5,-1204 # ffffeb4c <__e_f_text+0xf7fcc124>
 8003756:	97a2                	add	a5,a5,s0
 8003758:	74fd                	lui	s1,0xfffff
 800375a:	0007a023          	sw	zero,0(a5)
 800375e:	c9048493          	addi	s1,s1,-880 # ffffec90 <__e_f_text+0xf7fcc268>
 8003762:	ff440793          	addi	a5,s0,-12
 8003766:	94be                	add	s1,s1,a5
 8003768:	0002a617          	auipc	a2,0x2a
 800376c:	47060613          	addi	a2,a2,1136 # 802dbd8 <__clz_tab+0x258>
 8003770:	00032683          	lw	a3,0(t1)
 8003774:	04d00513          	li	a0,77
 8003778:	0006c583          	lbu	a1,0(a3)
 800377c:	fd558793          	addi	a5,a1,-43
 8003780:	0ff7f793          	andi	a5,a5,255
 8003784:	26f56663          	bltu	a0,a5,80039f0 <__ssvfscanf_r+0xb38>
 8003788:	078a                	slli	a5,a5,0x2
 800378a:	97b2                	add	a5,a5,a2
 800378c:	439c                	lw	a5,0(a5)
 800378e:	97b2                	add	a5,a5,a2
 8003790:	8782                	jr	a5
 8003792:	00176713          	ori	a4,a4,1
 8003796:	77fd                	lui	a5,0xfffff
 8003798:	b5878793          	addi	a5,a5,-1192 # ffffeb58 <__e_f_text+0xf7fcc130>
 800379c:	97a2                	add	a5,a5,s0
 800379e:	04076713          	ori	a4,a4,64
 80037a2:	c38c                	sw	a1,0(a5)
 80037a4:	4681                	li	a3,0
 80037a6:	bc51                	j	800323a <__ssvfscanf_r+0x382>
 80037a8:	00176713          	ori	a4,a4,1
 80037ac:	77fd                	lui	a5,0xfffff
 80037ae:	b5878793          	addi	a5,a5,-1192 # ffffeb58 <__e_f_text+0xf7fcc130>
 80037b2:	97a2                	add	a5,a5,s0
 80037b4:	c38c                	sw	a1,0(a5)
 80037b6:	4689                	li	a3,2
 80037b8:	b449                	j	800323a <__ssvfscanf_r+0x382>
 80037ba:	00176713          	ori	a4,a4,1
 80037be:	77fd                	lui	a5,0xfffff
 80037c0:	b5878793          	addi	a5,a5,-1192 # ffffeb58 <__e_f_text+0xf7fcc130>
 80037c4:	76fd                	lui	a3,0xfffff
 80037c6:	97a2                	add	a5,a5,s0
 80037c8:	b2468693          	addi	a3,a3,-1244 # ffffeb24 <__e_f_text+0xf7fcc0fc>
 80037cc:	c38c                	sw	a1,0(a5)
 80037ce:	96a2                	add	a3,a3,s0
 80037d0:	00005797          	auipc	a5,0x5
 80037d4:	a1a78793          	addi	a5,a5,-1510 # 80081ea <_strtoul_r>
 80037d8:	c29c                	sw	a5,0(a3)
 80037da:	47a1                	li	a5,8
 80037dc:	b3d9                	j	80035a2 <__ssvfscanf_r+0x6ea>
 80037de:	00176713          	ori	a4,a4,1
 80037e2:	77fd                	lui	a5,0xfffff
 80037e4:	b5878793          	addi	a5,a5,-1192 # ffffeb58 <__e_f_text+0xf7fcc130>
 80037e8:	97a2                	add	a5,a5,s0
 80037ea:	c38c                	sw	a1,0(a5)
 80037ec:	00004797          	auipc	a5,0x4
 80037f0:	41678793          	addi	a5,a5,1046 # 8007c02 <_strtol_r>
 80037f4:	76fd                	lui	a3,0xfffff
 80037f6:	b2468693          	addi	a3,a3,-1244 # ffffeb24 <__e_f_text+0xf7fcc0fc>
 80037fa:	96a2                	add	a3,a3,s0
 80037fc:	c29c                	sw	a5,0(a3)
 80037fe:	47a9                	li	a5,10
 8003800:	b34d                	j	80035a2 <__ssvfscanf_r+0x6ea>
 8003802:	00f77793          	andi	a5,a4,15
 8003806:	fe079b63          	bnez	a5,8002ffc <__ssvfscanf_r+0x144>
 800380a:	77fd                	lui	a5,0xfffff
 800380c:	b5878793          	addi	a5,a5,-1192 # ffffeb58 <__e_f_text+0xf7fcc130>
 8003810:	97a2                	add	a5,a5,s0
 8003812:	439c                	lw	a5,0(a5)
 8003814:	0017c683          	lbu	a3,1(a5)
 8003818:	06800793          	li	a5,104
 800381c:	00f69463          	bne	a3,a5,8003824 <__ssvfscanf_r+0x96c>
 8003820:	4760206f          	j	8005c96 <__ssvfscanf_r+0x2dde>
 8003824:	77fd                	lui	a5,0xfffff
 8003826:	b5878793          	addi	a5,a5,-1192 # ffffeb58 <__e_f_text+0xf7fcc130>
 800382a:	97a2                	add	a5,a5,s0
 800382c:	00476713          	ori	a4,a4,4
 8003830:	c38c                	sw	a1,0(a5)
 8003832:	f74ff06f          	j	8002fa6 <__ssvfscanf_r+0xee>
 8003836:	77fd                	lui	a5,0xfffff
 8003838:	b5878793          	addi	a5,a5,-1192 # ffffeb58 <__e_f_text+0xf7fcc130>
 800383c:	97a2                	add	a5,a5,s0
 800383e:	c38c                	sw	a1,0(a5)
 8003840:	00005797          	auipc	a5,0x5
 8003844:	9aa78793          	addi	a5,a5,-1622 # 80081ea <_strtoul_r>
 8003848:	b775                	j	80037f4 <__ssvfscanf_r+0x93c>
 800384a:	77fd                	lui	a5,0xfffff
 800384c:	b3878793          	addi	a5,a5,-1224 # ffffeb38 <__e_f_text+0xf7fcc110>
 8003850:	97a2                	add	a5,a5,s0
 8003852:	c398                	sw	a4,0(a5)
 8003854:	77fd                	lui	a5,0xfffff
 8003856:	b4078793          	addi	a5,a5,-1216 # ffffeb40 <__e_f_text+0xf7fcc118>
 800385a:	97a2                	add	a5,a5,s0
 800385c:	0057a023          	sw	t0,0(a5)
 8003860:	77fd                	lui	a5,0xfffff
 8003862:	b4c78793          	addi	a5,a5,-1204 # ffffeb4c <__e_f_text+0xf7fcc124>
 8003866:	97a2                	add	a5,a5,s0
 8003868:	757d                	lui	a0,0xfffff
 800386a:	0067a023          	sw	t1,0(a5)
 800386e:	b9050513          	addi	a0,a0,-1136 # ffffeb90 <__e_f_text+0xf7fcc168>
 8003872:	ff440793          	addi	a5,s0,-12
 8003876:	953e                	add	a0,a0,a5
 8003878:	665020ef          	jal	ra,80066dc <__sccl>
 800387c:	77fd                	lui	a5,0xfffff
 800387e:	b5878793          	addi	a5,a5,-1192 # ffffeb58 <__e_f_text+0xf7fcc130>
 8003882:	97a2                	add	a5,a5,s0
 8003884:	c388                	sw	a0,0(a5)
 8003886:	77fd                	lui	a5,0xfffff
 8003888:	b3878793          	addi	a5,a5,-1224 # ffffeb38 <__e_f_text+0xf7fcc110>
 800388c:	97a2                	add	a5,a5,s0
 800388e:	4398                	lw	a4,0(a5)
 8003890:	77fd                	lui	a5,0xfffff
 8003892:	b4c78793          	addi	a5,a5,-1204 # ffffeb4c <__e_f_text+0xf7fcc124>
 8003896:	97a2                	add	a5,a5,s0
 8003898:	0007a303          	lw	t1,0(a5)
 800389c:	77fd                	lui	a5,0xfffff
 800389e:	b4078793          	addi	a5,a5,-1216 # ffffeb40 <__e_f_text+0xf7fcc118>
 80038a2:	97a2                	add	a5,a5,s0
 80038a4:	0007a283          	lw	t0,0(a5)
 80038a8:	04076713          	ori	a4,a4,64
 80038ac:	4685                	li	a3,1
 80038ae:	b271                	j	800323a <__ssvfscanf_r+0x382>
 80038b0:	77fd                	lui	a5,0xfffff
 80038b2:	b5878793          	addi	a5,a5,-1192 # ffffeb58 <__e_f_text+0xf7fcc130>
 80038b6:	76fd                	lui	a3,0xfffff
 80038b8:	97a2                	add	a5,a5,s0
 80038ba:	b2468693          	addi	a3,a3,-1244 # ffffeb24 <__e_f_text+0xf7fcc0fc>
 80038be:	c38c                	sw	a1,0(a5)
 80038c0:	96a2                	add	a3,a3,s0
 80038c2:	00004797          	auipc	a5,0x4
 80038c6:	34078793          	addi	a5,a5,832 # 8007c02 <_strtol_r>
 80038ca:	c29c                	sw	a5,0(a3)
 80038cc:	77fd                	lui	a5,0xfffff
 80038ce:	b3078793          	addi	a5,a5,-1232 # ffffeb30 <__e_f_text+0xf7fcc108>
 80038d2:	97a2                	add	a5,a5,s0
 80038d4:	0007a023          	sw	zero,0(a5)
 80038d8:	468d                	li	a3,3
 80038da:	b285                	j	800323a <__ssvfscanf_r+0x382>
 80038dc:	00f77793          	andi	a5,a4,15
 80038e0:	f0079e63          	bnez	a5,8002ffc <__ssvfscanf_r+0x144>
 80038e4:	77fd                	lui	a5,0xfffff
 80038e6:	b5878793          	addi	a5,a5,-1192 # ffffeb58 <__e_f_text+0xf7fcc130>
 80038ea:	97a2                	add	a5,a5,s0
 80038ec:	439c                	lw	a5,0(a5)
 80038ee:	0017c683          	lbu	a3,1(a5)
 80038f2:	00769463          	bne	a3,t2,80038fa <__ssvfscanf_r+0xa42>
 80038f6:	37e0206f          	j	8005c74 <__ssvfscanf_r+0x2dbc>
 80038fa:	77fd                	lui	a5,0xfffff
 80038fc:	b5878793          	addi	a5,a5,-1192 # ffffeb58 <__e_f_text+0xf7fcc130>
 8003900:	97a2                	add	a5,a5,s0
 8003902:	00176713          	ori	a4,a4,1
 8003906:	c38c                	sw	a1,0(a5)
 8003908:	e9eff06f          	j	8002fa6 <__ssvfscanf_r+0xee>
 800390c:	08f77793          	andi	a5,a4,143
 8003910:	ee079663          	bnez	a5,8002ffc <__ssvfscanf_r+0x144>
 8003914:	77fd                	lui	a5,0xfffff
 8003916:	b4878793          	addi	a5,a5,-1208 # ffffeb48 <__e_f_text+0xf7fcc120>
 800391a:	97a2                	add	a5,a5,s0
 800391c:	439c                	lw	a5,0(a5)
 800391e:	e399                	bnez	a5,8003924 <__ssvfscanf_r+0xa6c>
 8003920:	41e0206f          	j	8005d3e <__ssvfscanf_r+0x2e86>
 8003924:	77fd                	lui	a5,0xfffff
 8003926:	b5878793          	addi	a5,a5,-1192 # ffffeb58 <__e_f_text+0xf7fcc130>
 800392a:	97a2                	add	a5,a5,s0
 800392c:	439c                	lw	a5,0(a5)
 800392e:	08076713          	ori	a4,a4,128
 8003932:	0017c683          	lbu	a3,1(a5)
 8003936:	77fd                	lui	a5,0xfffff
 8003938:	b5878793          	addi	a5,a5,-1192 # ffffeb58 <__e_f_text+0xf7fcc130>
 800393c:	97a2                	add	a5,a5,s0
 800393e:	c38c                	sw	a1,0(a5)
 8003940:	e66ff06f          	j	8002fa6 <__ssvfscanf_r+0xee>
 8003944:	76fd                	lui	a3,0xfffff
 8003946:	b5868693          	addi	a3,a3,-1192 # ffffeb58 <__e_f_text+0xf7fcc130>
 800394a:	96a2                	add	a3,a3,s0
 800394c:	01077793          	andi	a5,a4,16
 8003950:	c28c                	sw	a1,0(a3)
 8003952:	f6079063          	bnez	a5,80030b2 <__ssvfscanf_r+0x1fa>
 8003956:	76fd                	lui	a3,0xfffff
 8003958:	b3c68693          	addi	a3,a3,-1220 # ffffeb3c <__e_f_text+0xf7fcc114>
 800395c:	96a2                	add	a3,a3,s0
 800395e:	4290                	lw	a2,0(a3)
 8003960:	00877793          	andi	a5,a4,8
 8003964:	4214                	lw	a3,0(a2)
 8003966:	00460493          	addi	s1,a2,4
 800396a:	e399                	bnez	a5,8003970 <__ssvfscanf_r+0xab8>
 800396c:	4d00206f          	j	8005e3c <__ssvfscanf_r+0x2f84>
 8003970:	77fd                	lui	a5,0xfffff
 8003972:	b5078793          	addi	a5,a5,-1200 # ffffeb50 <__e_f_text+0xf7fcc128>
 8003976:	97a2                	add	a5,a5,s0
 8003978:	439c                	lw	a5,0(a5)
 800397a:	00f68023          	sb	a5,0(a3)
 800397e:	77fd                	lui	a5,0xfffff
 8003980:	b3c78793          	addi	a5,a5,-1220 # ffffeb3c <__e_f_text+0xf7fcc114>
 8003984:	97a2                	add	a5,a5,s0
 8003986:	c384                	sw	s1,0(a5)
 8003988:	f2aff06f          	j	80030b2 <__ssvfscanf_r+0x1fa>
 800398c:	22076713          	ori	a4,a4,544
 8003990:	bed5                	j	8003584 <__ssvfscanf_r+0x6cc>
 8003992:	00e2e2b3          	or	t0,t0,a4
 8003996:	e6029363          	bnez	t0,8002ffc <__ssvfscanf_r+0x144>
 800399a:	77fd                	lui	a5,0xfffff
 800399c:	b5878793          	addi	a5,a5,-1192 # ffffeb58 <__e_f_text+0xf7fcc130>
 80039a0:	97a2                	add	a5,a5,s0
 80039a2:	439c                	lw	a5,0(a5)
 80039a4:	4741                	li	a4,16
 80039a6:	0017c683          	lbu	a3,1(a5)
 80039aa:	77fd                	lui	a5,0xfffff
 80039ac:	b5878793          	addi	a5,a5,-1192 # ffffeb58 <__e_f_text+0xf7fcc130>
 80039b0:	97a2                	add	a5,a5,s0
 80039b2:	c38c                	sw	a1,0(a5)
 80039b4:	df2ff06f          	j	8002fa6 <__ssvfscanf_r+0xee>
 80039b8:	757d                	lui	a0,0xfffff
 80039ba:	b3050513          	addi	a0,a0,-1232 # ffffeb30 <__e_f_text+0xf7fcc108>
 80039be:	9522                	add	a0,a0,s0
 80039c0:	4108                	lw	a0,0(a0)
 80039c2:	47a9                	li	a5,10
 80039c4:	02a7d663          	bge	a5,a0,80039f0 <__ssvfscanf_r+0xb38>
 80039c8:	77fd                	lui	a5,0xfffff
 80039ca:	47f78793          	addi	a5,a5,1151 # fffff47f <__e_f_text+0xf7fcca57>
 80039ce:	8f7d                	and	a4,a4,a5
 80039d0:	00b48023          	sb	a1,0(s1)
 80039d4:	0485                	addi	s1,s1,1
 80039d6:	00432783          	lw	a5,4(t1)
 80039da:	17fd                	addi	a5,a5,-1
 80039dc:	00f32223          	sw	a5,4(t1)
 80039e0:	1ef05463          	blez	a5,8003bc8 <__ssvfscanf_r+0xd10>
 80039e4:	0685                	addi	a3,a3,1
 80039e6:	00d32023          	sw	a3,0(t1)
 80039ea:	12fd                	addi	t0,t0,-1
 80039ec:	d80292e3          	bnez	t0,8003770 <__ssvfscanf_r+0x8b8>
 80039f0:	10077793          	andi	a5,a4,256
 80039f4:	c39d                	beqz	a5,8003a1a <__ssvfscanf_r+0xb62>
 80039f6:	77fd                	lui	a5,0xfffff
 80039f8:	c9078793          	addi	a5,a5,-880 # ffffec90 <__e_f_text+0xf7fcc268>
 80039fc:	ff440693          	addi	a3,s0,-12
 8003a00:	97b6                	add	a5,a5,a3
 8003a02:	0097f463          	bgeu	a5,s1,8003a0a <__ssvfscanf_r+0xb52>
 8003a06:	7f30106f          	j	80059f8 <__ssvfscanf_r+0x2b40>
 8003a0a:	77fd                	lui	a5,0xfffff
 8003a0c:	c9078793          	addi	a5,a5,-880 # ffffec90 <__e_f_text+0xf7fcc268>
 8003a10:	ff440693          	addi	a3,s0,-12
 8003a14:	97b6                	add	a5,a5,a3
 8003a16:	def48363          	beq	s1,a5,8002ffc <__ssvfscanf_r+0x144>
 8003a1a:	76fd                	lui	a3,0xfffff
 8003a1c:	b4068693          	addi	a3,a3,-1216 # ffffeb40 <__e_f_text+0xf7fcc118>
 8003a20:	96a2                	add	a3,a3,s0
 8003a22:	01077793          	andi	a5,a4,16
 8003a26:	c298                	sw	a4,0(a3)
 8003a28:	e3dd                	bnez	a5,8003ace <__ssvfscanf_r+0xc16>
 8003a2a:	77fd                	lui	a5,0xfffff
 8003a2c:	b3478793          	addi	a5,a5,-1228 # ffffeb34 <__e_f_text+0xf7fcc10c>
 8003a30:	97a2                	add	a5,a5,s0
 8003a32:	75fd                	lui	a1,0xfffff
 8003a34:	0067a023          	sw	t1,0(a5)
 8003a38:	c9058593          	addi	a1,a1,-880 # ffffec90 <__e_f_text+0xf7fcc268>
 8003a3c:	ff440793          	addi	a5,s0,-12
 8003a40:	95be                	add	a1,a1,a5
 8003a42:	77fd                	lui	a5,0xfffff
 8003a44:	b3078793          	addi	a5,a5,-1232 # ffffeb30 <__e_f_text+0xf7fcc108>
 8003a48:	97a2                	add	a5,a5,s0
 8003a4a:	4394                	lw	a3,0(a5)
 8003a4c:	77fd                	lui	a5,0xfffff
 8003a4e:	b3878793          	addi	a5,a5,-1224 # ffffeb38 <__e_f_text+0xf7fcc110>
 8003a52:	97a2                	add	a5,a5,s0
 8003a54:	c38c                	sw	a1,0(a5)
 8003a56:	77fd                	lui	a5,0xfffff
 8003a58:	b5478793          	addi	a5,a5,-1196 # ffffeb54 <__e_f_text+0xf7fcc12c>
 8003a5c:	97a2                	add	a5,a5,s0
 8003a5e:	4388                	lw	a0,0(a5)
 8003a60:	77fd                	lui	a5,0xfffff
 8003a62:	b2478793          	addi	a5,a5,-1244 # ffffeb24 <__e_f_text+0xf7fcc0fc>
 8003a66:	97a2                	add	a5,a5,s0
 8003a68:	439c                	lw	a5,0(a5)
 8003a6a:	4601                	li	a2,0
 8003a6c:	00048023          	sb	zero,0(s1)
 8003a70:	9782                	jalr	a5
 8003a72:	77fd                	lui	a5,0xfffff
 8003a74:	b4078793          	addi	a5,a5,-1216 # ffffeb40 <__e_f_text+0xf7fcc118>
 8003a78:	97a2                	add	a5,a5,s0
 8003a7a:	4398                	lw	a4,0(a5)
 8003a7c:	77fd                	lui	a5,0xfffff
 8003a7e:	b3c78793          	addi	a5,a5,-1220 # ffffeb3c <__e_f_text+0xf7fcc114>
 8003a82:	97a2                	add	a5,a5,s0
 8003a84:	4390                	lw	a2,0(a5)
 8003a86:	75fd                	lui	a1,0xfffff
 8003a88:	737d                	lui	t1,0xfffff
 8003a8a:	b3858593          	addi	a1,a1,-1224 # ffffeb38 <__e_f_text+0xf7fcc110>
 8003a8e:	b3430313          	addi	t1,t1,-1228 # ffffeb34 <__e_f_text+0xf7fcc10c>
 8003a92:	95a2                	add	a1,a1,s0
 8003a94:	9322                	add	t1,t1,s0
 8003a96:	02077693          	andi	a3,a4,32
 8003a9a:	418c                	lw	a1,0(a1)
 8003a9c:	00032303          	lw	t1,0(t1)
 8003aa0:	00460793          	addi	a5,a2,4
 8003aa4:	e299                	bnez	a3,8003aaa <__ssvfscanf_r+0xbf2>
 8003aa6:	7bc0106f          	j	8005262 <__ssvfscanf_r+0x23aa>
 8003aaa:	4218                	lw	a4,0(a2)
 8003aac:	c308                	sw	a0,0(a4)
 8003aae:	777d                	lui	a4,0xfffff
 8003ab0:	b4470713          	addi	a4,a4,-1212 # ffffeb44 <__e_f_text+0xf7fcc11c>
 8003ab4:	9722                	add	a4,a4,s0
 8003ab6:	4318                	lw	a4,0(a4)
 8003ab8:	76fd                	lui	a3,0xfffff
 8003aba:	b4468693          	addi	a3,a3,-1212 # ffffeb44 <__e_f_text+0xf7fcc11c>
 8003abe:	0705                	addi	a4,a4,1
 8003ac0:	96a2                	add	a3,a3,s0
 8003ac2:	c298                	sw	a4,0(a3)
 8003ac4:	777d                	lui	a4,0xfffff
 8003ac6:	b3c70713          	addi	a4,a4,-1220 # ffffeb3c <__e_f_text+0xf7fcc114>
 8003aca:	9722                	add	a4,a4,s0
 8003acc:	c31c                	sw	a5,0(a4)
 8003ace:	77fd                	lui	a5,0xfffff
 8003ad0:	c9078793          	addi	a5,a5,-880 # ffffec90 <__e_f_text+0xf7fcc268>
 8003ad4:	ff440713          	addi	a4,s0,-12
 8003ad8:	97ba                	add	a5,a5,a4
 8003ada:	8c9d                	sub	s1,s1,a5
 8003adc:	77fd                	lui	a5,0xfffff
 8003ade:	b4c78793          	addi	a5,a5,-1204 # ffffeb4c <__e_f_text+0xf7fcc124>
 8003ae2:	97a2                	add	a5,a5,s0
 8003ae4:	439c                	lw	a5,0(a5)
 8003ae6:	94be                	add	s1,s1,a5
 8003ae8:	77fd                	lui	a5,0xfffff
 8003aea:	b5078793          	addi	a5,a5,-1200 # ffffeb50 <__e_f_text+0xf7fcc128>
 8003aee:	97a2                	add	a5,a5,s0
 8003af0:	439c                	lw	a5,0(a5)
 8003af2:	777d                	lui	a4,0xfffff
 8003af4:	b5070713          	addi	a4,a4,-1200 # ffffeb50 <__e_f_text+0xf7fcc128>
 8003af8:	97a6                	add	a5,a5,s1
 8003afa:	9722                	add	a4,a4,s0
 8003afc:	c31c                	sw	a5,0(a4)
 8003afe:	db4ff06f          	j	80030b2 <__ssvfscanf_r+0x1fa>
 8003b02:	77fd                	lui	a5,0xfffff
 8003b04:	b3078793          	addi	a5,a5,-1232 # ffffeb30 <__e_f_text+0xf7fcc108>
 8003b08:	97a2                	add	a5,a5,s0
 8003b0a:	439c                	lw	a5,0(a5)
 8003b0c:	00179513          	slli	a0,a5,0x1
 8003b10:	0002a797          	auipc	a5,0x2a
 8003b14:	33c78793          	addi	a5,a5,828 # 802de4c <basefix.0>
 8003b18:	97aa                	add	a5,a5,a0
 8003b1a:	00079783          	lh	a5,0(a5)
 8003b1e:	757d                	lui	a0,0xfffff
 8003b20:	b3050513          	addi	a0,a0,-1232 # ffffeb30 <__e_f_text+0xf7fcc108>
 8003b24:	9522                	add	a0,a0,s0
 8003b26:	c11c                	sw	a5,0(a0)
 8003b28:	77fd                	lui	a5,0xfffff
 8003b2a:	47f78793          	addi	a5,a5,1151 # fffff47f <__e_f_text+0xf7fcca57>
 8003b2e:	8f7d                	and	a4,a4,a5
 8003b30:	b545                	j	80039d0 <__ssvfscanf_r+0xb18>
 8003b32:	60077793          	andi	a5,a4,1536
 8003b36:	20000513          	li	a0,512
 8003b3a:	eaa79be3          	bne	a5,a0,80039f0 <__ssvfscanf_r+0xb38>
 8003b3e:	757d                	lui	a0,0xfffff
 8003b40:	b3050513          	addi	a0,a0,-1232 # ffffeb30 <__e_f_text+0xf7fcc108>
 8003b44:	dff77713          	andi	a4,a4,-513
 8003b48:	47c1                	li	a5,16
 8003b4a:	9522                	add	a0,a0,s0
 8003b4c:	50076713          	ori	a4,a4,1280
 8003b50:	c11c                	sw	a5,0(a0)
 8003b52:	bdbd                	j	80039d0 <__ssvfscanf_r+0xb18>
 8003b54:	08077793          	andi	a5,a4,128
 8003b58:	e8078ce3          	beqz	a5,80039f0 <__ssvfscanf_r+0xb38>
 8003b5c:	f7f77713          	andi	a4,a4,-129
 8003b60:	bd85                	j	80039d0 <__ssvfscanf_r+0xb18>
 8003b62:	77fd                	lui	a5,0xfffff
 8003b64:	b3078793          	addi	a5,a5,-1232 # ffffeb30 <__e_f_text+0xf7fcc108>
 8003b68:	97a2                	add	a5,a5,s0
 8003b6a:	439c                	lw	a5,0(a5)
 8003b6c:	00179513          	slli	a0,a5,0x1
 8003b70:	0002a797          	auipc	a5,0x2a
 8003b74:	2dc78793          	addi	a5,a5,732 # 802de4c <basefix.0>
 8003b78:	97aa                	add	a5,a5,a0
 8003b7a:	00079783          	lh	a5,0(a5)
 8003b7e:	853e                	mv	a0,a5
 8003b80:	77fd                	lui	a5,0xfffff
 8003b82:	b3078793          	addi	a5,a5,-1232 # ffffeb30 <__e_f_text+0xf7fcc108>
 8003b86:	97a2                	add	a5,a5,s0
 8003b88:	c388                	sw	a0,0(a5)
 8003b8a:	47a1                	li	a5,8
 8003b8c:	e2a7cee3          	blt	a5,a0,80039c8 <__ssvfscanf_r+0xb10>
 8003b90:	b585                	j	80039f0 <__ssvfscanf_r+0xb38>
 8003b92:	00b75793          	srli	a5,a4,0xb
 8003b96:	8b85                	andi	a5,a5,1
 8003b98:	e2078ce3          	beqz	a5,80039d0 <__ssvfscanf_r+0xb18>
 8003b9c:	77fd                	lui	a5,0xfffff
 8003b9e:	b3078793          	addi	a5,a5,-1232 # ffffeb30 <__e_f_text+0xf7fcc108>
 8003ba2:	97a2                	add	a5,a5,s0
 8003ba4:	439c                	lw	a5,0(a5)
 8003ba6:	eb89                	bnez	a5,8003bb8 <__ssvfscanf_r+0xd00>
 8003ba8:	757d                	lui	a0,0xfffff
 8003baa:	b3050513          	addi	a0,a0,-1232 # ffffeb30 <__e_f_text+0xf7fcc108>
 8003bae:	47a1                	li	a5,8
 8003bb0:	9522                	add	a0,a0,s0
 8003bb2:	20076713          	ori	a4,a4,512
 8003bb6:	c11c                	sw	a5,0(a0)
 8003bb8:	40077793          	andi	a5,a4,1024
 8003bbc:	e399                	bnez	a5,8003bc2 <__ssvfscanf_r+0xd0a>
 8003bbe:	66c0106f          	j	800522a <__ssvfscanf_r+0x2372>
 8003bc2:	a7f77713          	andi	a4,a4,-1409
 8003bc6:	b529                	j	80039d0 <__ssvfscanf_r+0xb18>
 8003bc8:	77fd                	lui	a5,0xfffff
 8003bca:	b3478793          	addi	a5,a5,-1228 # ffffeb34 <__e_f_text+0xf7fcc10c>
 8003bce:	97a2                	add	a5,a5,s0
 8003bd0:	c398                	sw	a4,0(a5)
 8003bd2:	77fd                	lui	a5,0xfffff
 8003bd4:	b3878793          	addi	a5,a5,-1224 # ffffeb38 <__e_f_text+0xf7fcc110>
 8003bd8:	97a2                	add	a5,a5,s0
 8003bda:	0057a023          	sw	t0,0(a5)
 8003bde:	77fd                	lui	a5,0xfffff
 8003be0:	b4078793          	addi	a5,a5,-1216 # ffffeb40 <__e_f_text+0xf7fcc118>
 8003be4:	97a2                	add	a5,a5,s0
 8003be6:	0067a023          	sw	t1,0(a5)
 8003bea:	77fd                	lui	a5,0xfffff
 8003bec:	b5478793          	addi	a5,a5,-1196 # ffffeb54 <__e_f_text+0xf7fcc12c>
 8003bf0:	97a2                	add	a5,a5,s0
 8003bf2:	4388                	lw	a0,0(a5)
 8003bf4:	859a                	mv	a1,t1
 8003bf6:	10f040ef          	jal	ra,8008504 <__ssrefill_r>
 8003bfa:	77fd                	lui	a5,0xfffff
 8003bfc:	b4078793          	addi	a5,a5,-1216 # ffffeb40 <__e_f_text+0xf7fcc118>
 8003c00:	97a2                	add	a5,a5,s0
 8003c02:	0007a303          	lw	t1,0(a5)
 8003c06:	77fd                	lui	a5,0xfffff
 8003c08:	b3878793          	addi	a5,a5,-1224 # ffffeb38 <__e_f_text+0xf7fcc110>
 8003c0c:	97a2                	add	a5,a5,s0
 8003c0e:	0007a283          	lw	t0,0(a5)
 8003c12:	77fd                	lui	a5,0xfffff
 8003c14:	b3478793          	addi	a5,a5,-1228 # ffffeb34 <__e_f_text+0xf7fcc10c>
 8003c18:	97a2                	add	a5,a5,s0
 8003c1a:	4398                	lw	a4,0(a5)
 8003c1c:	0002a617          	auipc	a2,0x2a
 8003c20:	fbc60613          	addi	a2,a2,-68 # 802dbd8 <__clz_tab+0x258>
 8003c24:	dc0503e3          	beqz	a0,80039ea <__ssvfscanf_r+0xb32>
 8003c28:	b3e1                	j	80039f0 <__ssvfscanf_r+0xb38>
 8003c2a:	76fd                	lui	a3,0xfffff
 8003c2c:	b4068693          	addi	a3,a3,-1216 # ffffeb40 <__e_f_text+0xf7fcc118>
 8003c30:	96a2                	add	a3,a3,s0
 8003c32:	0056a023          	sw	t0,0(a3)
 8003c36:	00029863          	bnez	t0,8003c46 <__ssvfscanf_r+0xd8e>
